ARM GAS  C:\Users\Yobely\AppData\Local\Temp\ccRpY4zM.s 			page 1


   1              		.cpu cortex-m0
   2              		.fpu softvfp
   3              		.eabi_attribute 20, 1
   4              		.eabi_attribute 21, 1
   5              		.eabi_attribute 23, 3
   6              		.eabi_attribute 24, 1
   7              		.eabi_attribute 25, 1
   8              		.eabi_attribute 26, 1
   9              		.eabi_attribute 30, 6
  10              		.eabi_attribute 34, 0
  11              		.eabi_attribute 18, 4
  12              		.code	16
  13              		.file	"AMuxSeq.c"
  14              		.text
  15              	.Ltext0:
  16              		.cfi_sections	.debug_frame
  17              		.global	AMuxSeq_initVar
  18              		.bss
  19              		.type	AMuxSeq_initVar, %object
  20              		.size	AMuxSeq_initVar, 1
  21              	AMuxSeq_initVar:
  22 0000 00       		.space	1
  23              		.section	.text.AMuxSeq_Start,"ax",%progbits
  24              		.align	2
  25              		.global	AMuxSeq_Start
  26              		.code	16
  27              		.thumb_func
  28              		.type	AMuxSeq_Start, %function
  29              	AMuxSeq_Start:
  30              	.LFB0:
  31              		.file 1 ".\\Generated_Source\\PSoC4\\AMuxSeq.c"
   1:.\Generated_Source\PSoC4/AMuxSeq.c **** /*******************************************************************************
   2:.\Generated_Source\PSoC4/AMuxSeq.c **** * File Name: AMuxSeq.c
   3:.\Generated_Source\PSoC4/AMuxSeq.c **** * Version 1.80
   4:.\Generated_Source\PSoC4/AMuxSeq.c **** *
   5:.\Generated_Source\PSoC4/AMuxSeq.c **** *  Description:
   6:.\Generated_Source\PSoC4/AMuxSeq.c **** *    This file contains functions for the AMuxSeq.
   7:.\Generated_Source\PSoC4/AMuxSeq.c **** *
   8:.\Generated_Source\PSoC4/AMuxSeq.c **** *   Note:
   9:.\Generated_Source\PSoC4/AMuxSeq.c **** *
  10:.\Generated_Source\PSoC4/AMuxSeq.c **** *******************************************************************************
  11:.\Generated_Source\PSoC4/AMuxSeq.c **** * Copyright 2008-2010, Cypress Semiconductor Corporation.  All rights reserved.
  12:.\Generated_Source\PSoC4/AMuxSeq.c **** * You may use this file only in accordance with the license, terms, conditions, 
  13:.\Generated_Source\PSoC4/AMuxSeq.c **** * disclaimers, and limitations in the end user license agreement accompanying 
  14:.\Generated_Source\PSoC4/AMuxSeq.c **** * the software package with which this file was provided.
  15:.\Generated_Source\PSoC4/AMuxSeq.c **** ********************************************************************************/
  16:.\Generated_Source\PSoC4/AMuxSeq.c **** 
  17:.\Generated_Source\PSoC4/AMuxSeq.c **** #include "AMuxSeq.h"
  18:.\Generated_Source\PSoC4/AMuxSeq.c **** 
  19:.\Generated_Source\PSoC4/AMuxSeq.c **** uint8 AMuxSeq_initVar = 0u;
  20:.\Generated_Source\PSoC4/AMuxSeq.c **** 
  21:.\Generated_Source\PSoC4/AMuxSeq.c **** 
  22:.\Generated_Source\PSoC4/AMuxSeq.c **** /*******************************************************************************
  23:.\Generated_Source\PSoC4/AMuxSeq.c **** * Function Name: AMuxSeq_Start
  24:.\Generated_Source\PSoC4/AMuxSeq.c **** ********************************************************************************
  25:.\Generated_Source\PSoC4/AMuxSeq.c **** * Summary:
  26:.\Generated_Source\PSoC4/AMuxSeq.c **** *  Disconnect all channels. The next time Next is called, channel 0 will be
ARM GAS  C:\Users\Yobely\AppData\Local\Temp\ccRpY4zM.s 			page 2


  27:.\Generated_Source\PSoC4/AMuxSeq.c **** *  connected.
  28:.\Generated_Source\PSoC4/AMuxSeq.c **** *
  29:.\Generated_Source\PSoC4/AMuxSeq.c **** * Parameters:
  30:.\Generated_Source\PSoC4/AMuxSeq.c **** *  void
  31:.\Generated_Source\PSoC4/AMuxSeq.c **** *
  32:.\Generated_Source\PSoC4/AMuxSeq.c **** * Return:
  33:.\Generated_Source\PSoC4/AMuxSeq.c **** *  void
  34:.\Generated_Source\PSoC4/AMuxSeq.c **** *
  35:.\Generated_Source\PSoC4/AMuxSeq.c **** *******************************************************************************/
  36:.\Generated_Source\PSoC4/AMuxSeq.c **** void AMuxSeq_Start(void)
  37:.\Generated_Source\PSoC4/AMuxSeq.c **** {
  32              		.loc 1 37 0
  33              		.cfi_startproc
  34 0000 80B5     		push	{r7, lr}
  35              		.cfi_def_cfa_offset 8
  36              		.cfi_offset 7, -8
  37              		.cfi_offset 14, -4
  38 0002 00AF     		add	r7, sp, #0
  39              		.cfi_def_cfa_register 7
  38:.\Generated_Source\PSoC4/AMuxSeq.c ****     AMuxSeq_DisconnectAll();
  40              		.loc 1 38 0
  41 0004 FFF7FEFF 		bl	AMuxSeq_DisconnectAll
  39:.\Generated_Source\PSoC4/AMuxSeq.c ****     AMuxSeq_initVar = 1u;
  42              		.loc 1 39 0
  43 0008 024B     		ldr	r3, .L2
  44 000a 0122     		mov	r2, #1
  45 000c 1A70     		strb	r2, [r3]
  40:.\Generated_Source\PSoC4/AMuxSeq.c **** }
  46              		.loc 1 40 0
  47 000e BD46     		mov	sp, r7
  48              		@ sp needed
  49 0010 80BD     		pop	{r7, pc}
  50              	.L3:
  51 0012 C046     		.align	2
  52              	.L2:
  53 0014 00000000 		.word	AMuxSeq_initVar
  54              		.cfi_endproc
  55              	.LFE0:
  56              		.size	AMuxSeq_Start, .-AMuxSeq_Start
  57              		.section	.text.AMuxSeq_Init,"ax",%progbits
  58              		.align	2
  59              		.global	AMuxSeq_Init
  60              		.code	16
  61              		.thumb_func
  62              		.type	AMuxSeq_Init, %function
  63              	AMuxSeq_Init:
  64              	.LFB1:
  41:.\Generated_Source\PSoC4/AMuxSeq.c **** 
  42:.\Generated_Source\PSoC4/AMuxSeq.c **** 
  43:.\Generated_Source\PSoC4/AMuxSeq.c **** /*******************************************************************************
  44:.\Generated_Source\PSoC4/AMuxSeq.c **** * Function Name: AMuxSeq_Init
  45:.\Generated_Source\PSoC4/AMuxSeq.c **** ********************************************************************************
  46:.\Generated_Source\PSoC4/AMuxSeq.c **** * Summary:
  47:.\Generated_Source\PSoC4/AMuxSeq.c **** *  Disconnect all channels. The next time Next is called, channel 0 will be
  48:.\Generated_Source\PSoC4/AMuxSeq.c **** *  connected.
  49:.\Generated_Source\PSoC4/AMuxSeq.c **** *
  50:.\Generated_Source\PSoC4/AMuxSeq.c **** * Parameters:
ARM GAS  C:\Users\Yobely\AppData\Local\Temp\ccRpY4zM.s 			page 3


  51:.\Generated_Source\PSoC4/AMuxSeq.c **** *  void
  52:.\Generated_Source\PSoC4/AMuxSeq.c **** *
  53:.\Generated_Source\PSoC4/AMuxSeq.c **** * Return:
  54:.\Generated_Source\PSoC4/AMuxSeq.c **** *  void
  55:.\Generated_Source\PSoC4/AMuxSeq.c **** *
  56:.\Generated_Source\PSoC4/AMuxSeq.c **** *******************************************************************************/
  57:.\Generated_Source\PSoC4/AMuxSeq.c **** void AMuxSeq_Init(void)
  58:.\Generated_Source\PSoC4/AMuxSeq.c **** {
  65              		.loc 1 58 0
  66              		.cfi_startproc
  67 0000 80B5     		push	{r7, lr}
  68              		.cfi_def_cfa_offset 8
  69              		.cfi_offset 7, -8
  70              		.cfi_offset 14, -4
  71 0002 00AF     		add	r7, sp, #0
  72              		.cfi_def_cfa_register 7
  59:.\Generated_Source\PSoC4/AMuxSeq.c ****     AMuxSeq_DisconnectAll();
  73              		.loc 1 59 0
  74 0004 FFF7FEFF 		bl	AMuxSeq_DisconnectAll
  60:.\Generated_Source\PSoC4/AMuxSeq.c **** }
  75              		.loc 1 60 0
  76 0008 BD46     		mov	sp, r7
  77              		@ sp needed
  78 000a 80BD     		pop	{r7, pc}
  79              		.cfi_endproc
  80              	.LFE1:
  81              		.size	AMuxSeq_Init, .-AMuxSeq_Init
  82              		.section	.text.AMuxSeq_Stop,"ax",%progbits
  83              		.align	2
  84              		.global	AMuxSeq_Stop
  85              		.code	16
  86              		.thumb_func
  87              		.type	AMuxSeq_Stop, %function
  88              	AMuxSeq_Stop:
  89              	.LFB2:
  61:.\Generated_Source\PSoC4/AMuxSeq.c **** 
  62:.\Generated_Source\PSoC4/AMuxSeq.c **** 
  63:.\Generated_Source\PSoC4/AMuxSeq.c **** /*******************************************************************************
  64:.\Generated_Source\PSoC4/AMuxSeq.c **** * Function Name: AMuxSeq_Stop
  65:.\Generated_Source\PSoC4/AMuxSeq.c **** ********************************************************************************
  66:.\Generated_Source\PSoC4/AMuxSeq.c **** * Summary:
  67:.\Generated_Source\PSoC4/AMuxSeq.c **** *  Disconnect all channels. The next time Next is called, channel 0 will be
  68:.\Generated_Source\PSoC4/AMuxSeq.c **** *  connected.
  69:.\Generated_Source\PSoC4/AMuxSeq.c **** *
  70:.\Generated_Source\PSoC4/AMuxSeq.c **** * Parameters:
  71:.\Generated_Source\PSoC4/AMuxSeq.c **** *  void
  72:.\Generated_Source\PSoC4/AMuxSeq.c **** *
  73:.\Generated_Source\PSoC4/AMuxSeq.c **** * Return:
  74:.\Generated_Source\PSoC4/AMuxSeq.c **** *  void
  75:.\Generated_Source\PSoC4/AMuxSeq.c **** *
  76:.\Generated_Source\PSoC4/AMuxSeq.c **** *******************************************************************************/
  77:.\Generated_Source\PSoC4/AMuxSeq.c **** void AMuxSeq_Stop(void)
  78:.\Generated_Source\PSoC4/AMuxSeq.c **** {
  90              		.loc 1 78 0
  91              		.cfi_startproc
  92 0000 80B5     		push	{r7, lr}
  93              		.cfi_def_cfa_offset 8
ARM GAS  C:\Users\Yobely\AppData\Local\Temp\ccRpY4zM.s 			page 4


  94              		.cfi_offset 7, -8
  95              		.cfi_offset 14, -4
  96 0002 00AF     		add	r7, sp, #0
  97              		.cfi_def_cfa_register 7
  79:.\Generated_Source\PSoC4/AMuxSeq.c ****     AMuxSeq_DisconnectAll();
  98              		.loc 1 79 0
  99 0004 FFF7FEFF 		bl	AMuxSeq_DisconnectAll
  80:.\Generated_Source\PSoC4/AMuxSeq.c **** }
 100              		.loc 1 80 0
 101 0008 BD46     		mov	sp, r7
 102              		@ sp needed
 103 000a 80BD     		pop	{r7, pc}
 104              		.cfi_endproc
 105              	.LFE2:
 106              		.size	AMuxSeq_Stop, .-AMuxSeq_Stop
 107              		.section	.text.AMuxSeq_Next,"ax",%progbits
 108              		.align	2
 109              		.global	AMuxSeq_Next
 110              		.code	16
 111              		.thumb_func
 112              		.type	AMuxSeq_Next, %function
 113              	AMuxSeq_Next:
 114              	.LFB3:
  81:.\Generated_Source\PSoC4/AMuxSeq.c **** 
  82:.\Generated_Source\PSoC4/AMuxSeq.c **** #if (AMuxSeq_MUXTYPE == AMuxSeq_MUX_DIFF)
  83:.\Generated_Source\PSoC4/AMuxSeq.c **** 
  84:.\Generated_Source\PSoC4/AMuxSeq.c **** /*******************************************************************************
  85:.\Generated_Source\PSoC4/AMuxSeq.c **** * Function Name: AMuxSeq_Next
  86:.\Generated_Source\PSoC4/AMuxSeq.c **** ********************************************************************************
  87:.\Generated_Source\PSoC4/AMuxSeq.c **** * Summary:
  88:.\Generated_Source\PSoC4/AMuxSeq.c **** *  Disconnects the previous channel and connects the next one in the sequence.
  89:.\Generated_Source\PSoC4/AMuxSeq.c **** *  When Next is called for the first time after Init, Start, Enable, Stop, or
  90:.\Generated_Source\PSoC4/AMuxSeq.c **** *  DisconnectAll, it connects channel 0.
  91:.\Generated_Source\PSoC4/AMuxSeq.c **** *
  92:.\Generated_Source\PSoC4/AMuxSeq.c **** * Parameters:
  93:.\Generated_Source\PSoC4/AMuxSeq.c **** *  void
  94:.\Generated_Source\PSoC4/AMuxSeq.c **** *
  95:.\Generated_Source\PSoC4/AMuxSeq.c **** * Return:
  96:.\Generated_Source\PSoC4/AMuxSeq.c **** *  void
  97:.\Generated_Source\PSoC4/AMuxSeq.c **** *
  98:.\Generated_Source\PSoC4/AMuxSeq.c **** *******************************************************************************/
  99:.\Generated_Source\PSoC4/AMuxSeq.c **** void AMuxSeq_Next(void)
 100:.\Generated_Source\PSoC4/AMuxSeq.c **** {
 115              		.loc 1 100 0
 116              		.cfi_startproc
 117 0000 80B5     		push	{r7, lr}
 118              		.cfi_def_cfa_offset 8
 119              		.cfi_offset 7, -8
 120              		.cfi_offset 14, -4
 121 0002 00AF     		add	r7, sp, #0
 122              		.cfi_def_cfa_register 7
 101:.\Generated_Source\PSoC4/AMuxSeq.c ****     AMuxSeq_CYAMUXSIDE_A_Next();
 123              		.loc 1 101 0
 124 0004 FFF7FEFF 		bl	AMuxSeq_CYAMUXSIDE_A_Next
 102:.\Generated_Source\PSoC4/AMuxSeq.c ****     AMuxSeq_CYAMUXSIDE_B_Next();
 125              		.loc 1 102 0
 126 0008 FFF7FEFF 		bl	AMuxSeq_CYAMUXSIDE_B_Next
ARM GAS  C:\Users\Yobely\AppData\Local\Temp\ccRpY4zM.s 			page 5


 103:.\Generated_Source\PSoC4/AMuxSeq.c **** }
 127              		.loc 1 103 0
 128 000c BD46     		mov	sp, r7
 129              		@ sp needed
 130 000e 80BD     		pop	{r7, pc}
 131              		.cfi_endproc
 132              	.LFE3:
 133              		.size	AMuxSeq_Next, .-AMuxSeq_Next
 134              		.section	.text.AMuxSeq_DisconnectAll,"ax",%progbits
 135              		.align	2
 136              		.global	AMuxSeq_DisconnectAll
 137              		.code	16
 138              		.thumb_func
 139              		.type	AMuxSeq_DisconnectAll, %function
 140              	AMuxSeq_DisconnectAll:
 141              	.LFB4:
 104:.\Generated_Source\PSoC4/AMuxSeq.c **** 
 105:.\Generated_Source\PSoC4/AMuxSeq.c **** 
 106:.\Generated_Source\PSoC4/AMuxSeq.c **** /*******************************************************************************
 107:.\Generated_Source\PSoC4/AMuxSeq.c **** * Function Name: AMuxSeq_DisconnectAll
 108:.\Generated_Source\PSoC4/AMuxSeq.c **** ********************************************************************************
 109:.\Generated_Source\PSoC4/AMuxSeq.c **** * Summary:
 110:.\Generated_Source\PSoC4/AMuxSeq.c **** *  This function disconnects all channels. The next time Next is called, channel
 111:.\Generated_Source\PSoC4/AMuxSeq.c **** *  0 will be connected.
 112:.\Generated_Source\PSoC4/AMuxSeq.c **** *
 113:.\Generated_Source\PSoC4/AMuxSeq.c **** * Parameters:
 114:.\Generated_Source\PSoC4/AMuxSeq.c **** *  void
 115:.\Generated_Source\PSoC4/AMuxSeq.c **** *
 116:.\Generated_Source\PSoC4/AMuxSeq.c **** * Return:
 117:.\Generated_Source\PSoC4/AMuxSeq.c **** *  void
 118:.\Generated_Source\PSoC4/AMuxSeq.c **** *
 119:.\Generated_Source\PSoC4/AMuxSeq.c **** *******************************************************************************/
 120:.\Generated_Source\PSoC4/AMuxSeq.c **** void AMuxSeq_DisconnectAll(void)
 121:.\Generated_Source\PSoC4/AMuxSeq.c **** {
 142              		.loc 1 121 0
 143              		.cfi_startproc
 144 0000 80B5     		push	{r7, lr}
 145              		.cfi_def_cfa_offset 8
 146              		.cfi_offset 7, -8
 147              		.cfi_offset 14, -4
 148 0002 00AF     		add	r7, sp, #0
 149              		.cfi_def_cfa_register 7
 122:.\Generated_Source\PSoC4/AMuxSeq.c ****     AMuxSeq_CYAMUXSIDE_A_DisconnectAll();
 150              		.loc 1 122 0
 151 0004 FFF7FEFF 		bl	AMuxSeq_CYAMUXSIDE_A_DisconnectAll
 123:.\Generated_Source\PSoC4/AMuxSeq.c ****     AMuxSeq_CYAMUXSIDE_B_DisconnectAll();
 152              		.loc 1 123 0
 153 0008 FFF7FEFF 		bl	AMuxSeq_CYAMUXSIDE_B_DisconnectAll
 124:.\Generated_Source\PSoC4/AMuxSeq.c **** }
 154              		.loc 1 124 0
 155 000c BD46     		mov	sp, r7
 156              		@ sp needed
 157 000e 80BD     		pop	{r7, pc}
 158              		.cfi_endproc
 159              	.LFE4:
 160              		.size	AMuxSeq_DisconnectAll, .-AMuxSeq_DisconnectAll
 161              		.section	.text.AMuxSeq_GetChannel,"ax",%progbits
ARM GAS  C:\Users\Yobely\AppData\Local\Temp\ccRpY4zM.s 			page 6


 162              		.align	2
 163              		.global	AMuxSeq_GetChannel
 164              		.code	16
 165              		.thumb_func
 166              		.type	AMuxSeq_GetChannel, %function
 167              	AMuxSeq_GetChannel:
 168              	.LFB5:
 125:.\Generated_Source\PSoC4/AMuxSeq.c **** 
 126:.\Generated_Source\PSoC4/AMuxSeq.c **** 
 127:.\Generated_Source\PSoC4/AMuxSeq.c **** /*******************************************************************************
 128:.\Generated_Source\PSoC4/AMuxSeq.c **** * Function Name: AMuxSeq_GetChannel
 129:.\Generated_Source\PSoC4/AMuxSeq.c **** ********************************************************************************
 130:.\Generated_Source\PSoC4/AMuxSeq.c **** * Summary:
 131:.\Generated_Source\PSoC4/AMuxSeq.c **** *  The currently connected channel is retuned. If no channel is connected
 132:.\Generated_Source\PSoC4/AMuxSeq.c **** *  returns -1.
 133:.\Generated_Source\PSoC4/AMuxSeq.c **** *
 134:.\Generated_Source\PSoC4/AMuxSeq.c **** * Parameters:
 135:.\Generated_Source\PSoC4/AMuxSeq.c **** *  void
 136:.\Generated_Source\PSoC4/AMuxSeq.c **** *
 137:.\Generated_Source\PSoC4/AMuxSeq.c **** * Return:
 138:.\Generated_Source\PSoC4/AMuxSeq.c **** *  The current channel or -1.
 139:.\Generated_Source\PSoC4/AMuxSeq.c **** *
 140:.\Generated_Source\PSoC4/AMuxSeq.c **** *******************************************************************************/
 141:.\Generated_Source\PSoC4/AMuxSeq.c **** int8 AMuxSeq_GetChannel(void)
 142:.\Generated_Source\PSoC4/AMuxSeq.c **** {
 169              		.loc 1 142 0
 170              		.cfi_startproc
 171 0000 80B5     		push	{r7, lr}
 172              		.cfi_def_cfa_offset 8
 173              		.cfi_offset 7, -8
 174              		.cfi_offset 14, -4
 175 0002 00AF     		add	r7, sp, #0
 176              		.cfi_def_cfa_register 7
 143:.\Generated_Source\PSoC4/AMuxSeq.c ****     return AMuxSeq_CYAMUXSIDE_A_curChannel;
 177              		.loc 1 143 0
 178 0004 024B     		ldr	r3, .L10
 179 0006 1B78     		ldrb	r3, [r3]
 180 0008 5BB2     		sxtb	r3, r3
 144:.\Generated_Source\PSoC4/AMuxSeq.c **** }
 181              		.loc 1 144 0
 182 000a 181C     		mov	r0, r3
 183 000c BD46     		mov	sp, r7
 184              		@ sp needed
 185 000e 80BD     		pop	{r7, pc}
 186              	.L11:
 187              		.align	2
 188              	.L10:
 189 0010 00000000 		.word	AMuxSeq_CYAMUXSIDE_A_curChannel
 190              		.cfi_endproc
 191              	.LFE5:
 192              		.size	AMuxSeq_GetChannel, .-AMuxSeq_GetChannel
 193              		.text
 194              	.Letext0:
 195              		.file 2 ".\\Generated_Source\\PSoC4\\cytypes.h"
 196              		.file 3 ".\\Generated_Source\\PSoC4\\cyfitter_cfg.h"