ARM GAS  C:\Users\Yobely\AppData\Local\Temp\ccMjvHHf.s 			page 1


   1              		.cpu cortex-m0
   2              		.fpu softvfp
   3              		.eabi_attribute 20, 1
   4              		.eabi_attribute 21, 1
   5              		.eabi_attribute 23, 3
   6              		.eabi_attribute 24, 1
   7              		.eabi_attribute 25, 1
   8              		.eabi_attribute 26, 1
   9              		.eabi_attribute 30, 6
  10              		.eabi_attribute 34, 0
  11              		.eabi_attribute 18, 4
  12              		.code	16
  13              		.file	"BLE_gatt.c"
  14              		.text
  15              	.Ltext0:
  16              		.cfi_sections	.debug_frame
  17              		.comm	cyBle_state,1,1
  18              		.global	cyBle_gatts
  19              		.section	.rodata
  20              		.align	2
  21              		.type	cyBle_gatts, %object
  22              		.size	cyBle_gatts, 6
  23              	cyBle_gatts:
  24 0000 0800     		.short	8
  25 0002 0A00     		.short	10
  26 0004 0B00     		.short	11
  27              		.data
  28              		.align	2
  29              		.type	cyBle_attValues, %object
  30              		.size	cyBle_attValues, 119
  31              	cyBle_attValues:
  32 0000 4D       		.byte	77
  33 0001 79       		.byte	121
  34 0002 54       		.byte	84
  35 0003 68       		.byte	104
  36 0004 65       		.byte	101
  37 0005 72       		.byte	114
  38 0006 6D       		.byte	109
  39 0007 6F       		.byte	111
  40 0008 6D       		.byte	109
  41 0009 65       		.byte	101
  42 000a 74       		.byte	116
  43 000b 65       		.byte	101
  44 000c 72       		.byte	114
  45 000d 00       		.byte	0
  46 000e 03       		.byte	3
  47 000f 06       		.byte	6
  48 0010 00       		.byte	0
  49 0011 28       		.byte	40
  50 0012 00       		.byte	0
  51 0013 00       		.byte	0
  52 0014 00       		.byte	0
  53 0015 E8       		.byte	-24
  54 0016 03       		.byte	3
  55 0017 00       		.byte	0
  56 0018 00       		.byte	0
  57 0019 00       		.byte	0
ARM GAS  C:\Users\Yobely\AppData\Local\Temp\ccMjvHHf.s 			page 2


  58 001a 00       		.byte	0
  59 001b 00       		.byte	0
  60 001c 00       		.byte	0
  61 001d 00       		.byte	0
  62 001e 00       		.byte	0
  63 001f 00       		.byte	0
  64 0020 02       		.byte	2
  65 0021 00       		.byte	0
  66 0022 00       		.byte	0
  67 0023 00       		.byte	0
  68 0024 00       		.byte	0
  69 0025 00       		.byte	0
  70 0026 01       		.byte	1
  71 0027 00       		.byte	0
  72 0028 01       		.byte	1
  73 0029 00       		.byte	0
  74 002a 3C       		.byte	60
  75 002b 00       		.byte	0
  76 002c 43       		.byte	67
  77 002d 79       		.byte	121
  78 002e 70       		.byte	112
  79 002f 72       		.byte	114
  80 0030 65       		.byte	101
  81 0031 73       		.byte	115
  82 0032 73       		.byte	115
  83 0033 20       		.byte	32
  84 0034 53       		.byte	83
  85 0035 65       		.byte	101
  86 0036 6D       		.byte	109
  87 0037 69       		.byte	105
  88 0038 63       		.byte	99
  89 0039 6F       		.byte	111
  90 003a 6E       		.byte	110
  91 003b 64       		.byte	100
  92 003c 75       		.byte	117
  93 003d 63       		.byte	99
  94 003e 74       		.byte	116
  95 003f 6F       		.byte	111
  96 0040 72       		.byte	114
  97 0041 31       		.byte	49
  98 0042 2E       		.byte	46
  99 0043 30       		.byte	48
 100 0044 2A       		.byte	42
 101 0045 2A       		.byte	42
 102 0046 43       		.byte	67
 103 0047 59       		.byte	89
 104 0048 38       		.byte	56
 105 0049 43       		.byte	67
 106 004a 4B       		.byte	75
 107 004b 49       		.byte	73
 108 004c 54       		.byte	84
 109 004d 2D       		.byte	45
 110 004e 30       		.byte	48
 111 004f 34       		.byte	52
 112 0050 32       		.byte	50
 113 0051 2D       		.byte	45
 114 0052 42       		.byte	66
ARM GAS  C:\Users\Yobely\AppData\Local\Temp\ccMjvHHf.s 			page 3


 115 0053 4C       		.byte	76
 116 0054 45       		.byte	69
 117 0055 2A       		.byte	42
 118 0056 2A       		.byte	42
 119 0057 50       		.byte	80
 120 0058 53       		.byte	83
 121 0059 6F       		.byte	111
 122 005a 43       		.byte	67
 123 005b 20       		.byte	32
 124 005c 43       		.byte	67
 125 005d 72       		.byte	114
 126 005e 65       		.byte	101
 127 005f 61       		.byte	97
 128 0060 74       		.byte	116
 129 0061 6F       		.byte	111
 130 0062 72       		.byte	114
 131 0063 20       		.byte	32
 132 0064 33       		.byte	51
 133 0065 2E       		.byte	46
 134 0066 31       		.byte	49
 135 0067 00       		.byte	0
 136 0068 00       		.byte	0
 137 0069 00       		.byte	0
 138 006a 00       		.byte	0
 139 006b 00       		.byte	0
 140 006c 00       		.byte	0
 141 006d 00       		.byte	0
 142 006e 00       		.byte	0
 143 006f 00       		.byte	0
 144 0070 01       		.byte	1
 145 0071 00       		.byte	0
 146 0072 00       		.byte	0
 147 0073 00       		.byte	0
 148 0074 00       		.byte	0
 149 0075 00       		.byte	0
 150 0076 00       		.byte	0
 151              		.global	cyBle_attValuesCCCDFlashMemory
 152 0077 00       		.section	.rodata
 153 0006 00000000 		.align	7
 153      00000000 
 153      00000000 
 153      00000000 
 153      00000000 
 154              		.type	cyBle_attValuesCCCDFlashMemory, %object
 155              		.size	cyBle_attValuesCCCDFlashMemory, 40
 156              	cyBle_attValuesCCCDFlashMemory:
 157 0080 00000000 		.space	40
 157      00000000 
 157      00000000 
 157      00000000 
 157      00000000 
 158              		.comm	cyBle_attValuesCCCD,8,4
 159              		.global	cyBle_gattDB
 160              		.align	2
 161              		.type	cyBle_gattDB, %object
 162              		.size	cyBle_gattDB, 860
 163              	cyBle_gattDB:
ARM GAS  C:\Users\Yobely\AppData\Local\Temp\ccMjvHHf.s 			page 4


 164 00a8 0100     		.short	1
 165 00aa 0028     		.short	10240
 166 00ac 01000000 		.word	1
 167 00b0 0700     		.short	7
 168 00b2 0000     		.space	2
 169 00b4 0018     		.short	6144
 170 00b6 0000     		.space	2
 171 00b8 00000000 		.word	0
 172 00bc 0200     		.short	2
 173 00be 0328     		.short	10243
 174 00c0 01020000 		.word	513
 175 00c4 0300     		.short	3
 176 00c6 0000     		.space	2
 177 00c8 002A     		.short	10752
 178 00ca 0000     		.space	2
 179 00cc 00000000 		.word	0
 180 00d0 0300     		.short	3
 181 00d2 002A     		.short	10752
 182 00d4 01020000 		.word	513
 183 00d8 0300     		.short	3
 184 00da 0000     		.space	2
 185 00dc 0D00     		.short	13
 186 00de 0000     		.space	2
 187 00e0 00000000 		.word	cyBle_attValues
 188 00e4 0400     		.short	4
 189 00e6 0328     		.short	10243
 190 00e8 01020000 		.word	513
 191 00ec 0500     		.short	5
 192 00ee 0000     		.space	2
 193 00f0 012A     		.short	10753
 194 00f2 0000     		.space	2
 195 00f4 00000000 		.word	0
 196 00f8 0500     		.short	5
 197 00fa 012A     		.short	10753
 198 00fc 01020000 		.word	513
 199 0100 0500     		.short	5
 200 0102 0000     		.space	2
 201 0104 0200     		.short	2
 202 0106 0000     		.space	2
 203 0108 0D000000 		.word	cyBle_attValues+13
 204 010c 0600     		.short	6
 205 010e 0328     		.short	10243
 206 0110 01020000 		.word	513
 207 0114 0700     		.short	7
 208 0116 0000     		.space	2
 209 0118 042A     		.short	10756
 210 011a 0000     		.space	2
 211 011c 00000000 		.word	0
 212 0120 0700     		.short	7
 213 0122 042A     		.short	10756
 214 0124 01020000 		.word	513
 215 0128 0700     		.short	7
 216 012a 0000     		.space	2
 217 012c 0800     		.short	8
 218 012e 0000     		.space	2
 219 0130 0F000000 		.word	cyBle_attValues+15
 220 0134 0800     		.short	8
ARM GAS  C:\Users\Yobely\AppData\Local\Temp\ccMjvHHf.s 			page 5


 221 0136 0028     		.short	10240
 222 0138 01000000 		.word	1
 223 013c 0B00     		.short	11
 224 013e 0000     		.space	2
 225 0140 0118     		.short	6145
 226 0142 0000     		.space	2
 227 0144 00000000 		.word	0
 228 0148 0900     		.short	9
 229 014a 0328     		.short	10243
 230 014c 01220000 		.word	8705
 231 0150 0B00     		.short	11
 232 0152 0000     		.space	2
 233 0154 052A     		.short	10757
 234 0156 0000     		.space	2
 235 0158 00000000 		.word	0
 236 015c 0A00     		.short	10
 237 015e 052A     		.short	10757
 238 0160 01220000 		.word	8705
 239 0164 0B00     		.short	11
 240 0166 0000     		.space	2
 241 0168 0400     		.short	4
 242 016a 0000     		.space	2
 243 016c 17000000 		.word	cyBle_attValues+23
 244 0170 0B00     		.short	11
 245 0172 0229     		.short	10498
 246 0174 040A0000 		.word	2564
 247 0178 0B00     		.short	11
 248 017a 0000     		.space	2
 249 017c 0200     		.short	2
 250 017e 0000     		.space	2
 251 0180 00000000 		.word	cyBle_attValuesCCCD
 252 0184 0C00     		.short	12
 253 0186 0028     		.short	10240
 254 0188 01000000 		.word	1
 255 018c 1800     		.short	24
 256 018e 0000     		.space	2
 257 0190 0918     		.short	6153
 258 0192 0000     		.space	2
 259 0194 00000000 		.word	0
 260 0198 0D00     		.short	13
 261 019a 0328     		.short	10243
 262 019c 01200000 		.word	8193
 263 01a0 0F00     		.short	15
 264 01a2 0000     		.space	2
 265 01a4 1C2A     		.short	10780
 266 01a6 0000     		.space	2
 267 01a8 00000000 		.word	0
 268 01ac 0E00     		.short	14
 269 01ae 1C2A     		.short	10780
 270 01b0 00200000 		.word	8192
 271 01b4 0F00     		.short	15
 272 01b6 0000     		.space	2
 273 01b8 0500     		.short	5
 274 01ba 0000     		.space	2
 275 01bc 1B000000 		.word	cyBle_attValues+27
 276 01c0 0F00     		.short	15
 277 01c2 0229     		.short	10498
ARM GAS  C:\Users\Yobely\AppData\Local\Temp\ccMjvHHf.s 			page 6


 278 01c4 040A0000 		.word	2564
 279 01c8 0F00     		.short	15
 280 01ca 0000     		.space	2
 281 01cc 0200     		.short	2
 282 01ce 0000     		.space	2
 283 01d0 02000000 		.word	cyBle_attValuesCCCD+2
 284 01d4 1000     		.short	16
 285 01d6 0328     		.short	10243
 286 01d8 01020000 		.word	513
 287 01dc 1100     		.short	17
 288 01de 0000     		.space	2
 289 01e0 1D2A     		.short	10781
 290 01e2 0000     		.space	2
 291 01e4 00000000 		.word	0
 292 01e8 1100     		.short	17
 293 01ea 1D2A     		.short	10781
 294 01ec 01020000 		.word	513
 295 01f0 1100     		.short	17
 296 01f2 0000     		.space	2
 297 01f4 0100     		.short	1
 298 01f6 0000     		.space	2
 299 01f8 20000000 		.word	cyBle_attValues+32
 300 01fc 1200     		.short	18
 301 01fe 0328     		.short	10243
 302 0200 01100000 		.word	4097
 303 0204 1400     		.short	20
 304 0206 0000     		.space	2
 305 0208 1E2A     		.short	10782
 306 020a 0000     		.space	2
 307 020c 00000000 		.word	0
 308 0210 1300     		.short	19
 309 0212 1E2A     		.short	10782
 310 0214 00100000 		.word	4096
 311 0218 1400     		.short	20
 312 021a 0000     		.space	2
 313 021c 0500     		.short	5
 314 021e 0000     		.space	2
 315 0220 21000000 		.word	cyBle_attValues+33
 316 0224 1400     		.short	20
 317 0226 0229     		.short	10498
 318 0228 040A0000 		.word	2564
 319 022c 1400     		.short	20
 320 022e 0000     		.space	2
 321 0230 0200     		.short	2
 322 0232 0000     		.space	2
 323 0234 04000000 		.word	cyBle_attValuesCCCD+4
 324 0238 1500     		.short	21
 325 023a 0328     		.short	10243
 326 023c 010A0000 		.word	2561
 327 0240 1800     		.short	24
 328 0242 0000     		.space	2
 329 0244 212A     		.short	10785
 330 0246 0000     		.space	2
 331 0248 00000000 		.word	0
 332 024c 1600     		.short	22
 333 024e 212A     		.short	10785
 334 0250 040A0000 		.word	2564
ARM GAS  C:\Users\Yobely\AppData\Local\Temp\ccMjvHHf.s 			page 7


 335 0254 1800     		.short	24
 336 0256 0000     		.space	2
 337 0258 0200     		.short	2
 338 025a 0000     		.space	2
 339 025c 26000000 		.word	cyBle_attValues+38
 340 0260 1700     		.short	23
 341 0262 0229     		.short	10498
 342 0264 040A0000 		.word	2564
 343 0268 1700     		.short	23
 344 026a 0000     		.space	2
 345 026c 0200     		.short	2
 346 026e 0000     		.space	2
 347 0270 06000000 		.word	cyBle_attValuesCCCD+6
 348 0274 1800     		.short	24
 349 0276 0629     		.short	10502
 350 0278 01020000 		.word	513
 351 027c 1800     		.short	24
 352 027e 0000     		.space	2
 353 0280 0400     		.short	4
 354 0282 0000     		.space	2
 355 0284 28000000 		.word	cyBle_attValues+40
 356 0288 1900     		.short	25
 357 028a 0028     		.short	10240
 358 028c 01000000 		.word	1
 359 0290 2B00     		.short	43
 360 0292 0000     		.space	2
 361 0294 0A18     		.short	6154
 362 0296 0000     		.space	2
 363 0298 00000000 		.word	0
 364 029c 1A00     		.short	26
 365 029e 0328     		.short	10243
 366 02a0 01020000 		.word	513
 367 02a4 1B00     		.short	27
 368 02a6 0000     		.space	2
 369 02a8 292A     		.short	10793
 370 02aa 0000     		.space	2
 371 02ac 00000000 		.word	0
 372 02b0 1B00     		.short	27
 373 02b2 292A     		.short	10793
 374 02b4 01020000 		.word	513
 375 02b8 1B00     		.short	27
 376 02ba 0000     		.space	2
 377 02bc 1500     		.short	21
 378 02be 0000     		.space	2
 379 02c0 2C000000 		.word	cyBle_attValues+44
 380 02c4 1C00     		.short	28
 381 02c6 0328     		.short	10243
 382 02c8 01020000 		.word	513
 383 02cc 1D00     		.short	29
 384 02ce 0000     		.space	2
 385 02d0 242A     		.short	10788
 386 02d2 0000     		.space	2
 387 02d4 00000000 		.word	0
 388 02d8 1D00     		.short	29
 389 02da 242A     		.short	10788
 390 02dc 01020000 		.word	513
 391 02e0 1D00     		.short	29
ARM GAS  C:\Users\Yobely\AppData\Local\Temp\ccMjvHHf.s 			page 8


 392 02e2 0000     		.space	2
 393 02e4 0300     		.short	3
 394 02e6 0000     		.space	2
 395 02e8 41000000 		.word	cyBle_attValues+65
 396 02ec 1E00     		.short	30
 397 02ee 0328     		.short	10243
 398 02f0 01020000 		.word	513
 399 02f4 1F00     		.short	31
 400 02f6 0000     		.space	2
 401 02f8 252A     		.short	10789
 402 02fa 0000     		.space	2
 403 02fc 00000000 		.word	0
 404 0300 1F00     		.short	31
 405 0302 252A     		.short	10789
 406 0304 01020000 		.word	513
 407 0308 1F00     		.short	31
 408 030a 0000     		.space	2
 409 030c 0200     		.short	2
 410 030e 0000     		.space	2
 411 0310 44000000 		.word	cyBle_attValues+68
 412 0314 2000     		.short	32
 413 0316 0328     		.short	10243
 414 0318 01020000 		.word	513
 415 031c 2100     		.short	33
 416 031e 0000     		.space	2
 417 0320 272A     		.short	10791
 418 0322 0000     		.space	2
 419 0324 00000000 		.word	0
 420 0328 2100     		.short	33
 421 032a 272A     		.short	10791
 422 032c 01020000 		.word	513
 423 0330 2100     		.short	33
 424 0332 0000     		.space	2
 425 0334 0F00     		.short	15
 426 0336 0000     		.space	2
 427 0338 46000000 		.word	cyBle_attValues+70
 428 033c 2200     		.short	34
 429 033e 0328     		.short	10243
 430 0340 01020000 		.word	513
 431 0344 2300     		.short	35
 432 0346 0000     		.space	2
 433 0348 262A     		.short	10790
 434 034a 0000     		.space	2
 435 034c 00000000 		.word	0
 436 0350 2300     		.short	35
 437 0352 262A     		.short	10790
 438 0354 01020000 		.word	513
 439 0358 2300     		.short	35
 440 035a 0000     		.space	2
 441 035c 0200     		.short	2
 442 035e 0000     		.space	2
 443 0360 55000000 		.word	cyBle_attValues+85
 444 0364 2400     		.short	36
 445 0366 0328     		.short	10243
 446 0368 01020000 		.word	513
 447 036c 2500     		.short	37
 448 036e 0000     		.space	2
ARM GAS  C:\Users\Yobely\AppData\Local\Temp\ccMjvHHf.s 			page 9


 449 0370 282A     		.short	10792
 450 0372 0000     		.space	2
 451 0374 00000000 		.word	0
 452 0378 2500     		.short	37
 453 037a 282A     		.short	10792
 454 037c 01020000 		.word	513
 455 0380 2500     		.short	37
 456 0382 0000     		.space	2
 457 0384 1000     		.short	16
 458 0386 0000     		.space	2
 459 0388 57000000 		.word	cyBle_attValues+87
 460 038c 2600     		.short	38
 461 038e 0328     		.short	10243
 462 0390 01020000 		.word	513
 463 0394 2700     		.short	39
 464 0396 0000     		.space	2
 465 0398 232A     		.short	10787
 466 039a 0000     		.space	2
 467 039c 00000000 		.word	0
 468 03a0 2700     		.short	39
 469 03a2 232A     		.short	10787
 470 03a4 01020000 		.word	513
 471 03a8 2700     		.short	39
 472 03aa 0000     		.space	2
 473 03ac 0800     		.short	8
 474 03ae 0000     		.space	2
 475 03b0 67000000 		.word	cyBle_attValues+103
 476 03b4 2800     		.short	40
 477 03b6 0328     		.short	10243
 478 03b8 01020000 		.word	513
 479 03bc 2900     		.short	41
 480 03be 0000     		.space	2
 481 03c0 2A2A     		.short	10794
 482 03c2 0000     		.space	2
 483 03c4 00000000 		.word	0
 484 03c8 2900     		.short	41
 485 03ca 2A2A     		.short	10794
 486 03cc 01020000 		.word	513
 487 03d0 2900     		.short	41
 488 03d2 0000     		.space	2
 489 03d4 0100     		.short	1
 490 03d6 0000     		.space	2
 491 03d8 6F000000 		.word	cyBle_attValues+111
 492 03dc 2A00     		.short	42
 493 03de 0328     		.short	10243
 494 03e0 01020000 		.word	513
 495 03e4 2B00     		.short	43
 496 03e6 0000     		.space	2
 497 03e8 502A     		.short	10832
 498 03ea 0000     		.space	2
 499 03ec 00000000 		.word	0
 500 03f0 2B00     		.short	43
 501 03f2 502A     		.short	10832
 502 03f4 01020000 		.word	513
 503 03f8 2B00     		.short	43
 504 03fa 0000     		.space	2
 505 03fc 0700     		.short	7
ARM GAS  C:\Users\Yobely\AppData\Local\Temp\ccMjvHHf.s 			page 10


 506 03fe 0000     		.space	2
 507 0400 70000000 		.word	cyBle_attValues+112
 508 0404 00000000 		.section	.text.CyBle_GattsReInitGattDb,"ax",%progbits
 508      00000000 
 508      00000000 
 508      00000000 
 508      00000000 
 509              		.align	2
 510              		.global	CyBle_GattsReInitGattDb
 511              		.code	16
 512              		.thumb_func
 513              		.type	CyBle_GattsReInitGattDb, %function
 514              	CyBle_GattsReInitGattDb:
 515              	.LFB2:
 516              		.file 1 ".\\Generated_Source\\PSoC4\\BLE_gatt.c"
   1:.\Generated_Source\PSoC4/BLE_gatt.c **** /*******************************************************************************
   2:.\Generated_Source\PSoC4/BLE_gatt.c **** File Name: CYBLE_gatt.c
   3:.\Generated_Source\PSoC4/BLE_gatt.c **** Version 1.10
   4:.\Generated_Source\PSoC4/BLE_gatt.c **** 
   5:.\Generated_Source\PSoC4/BLE_gatt.c **** Description:
   6:.\Generated_Source\PSoC4/BLE_gatt.c ****  This file contains the source code for the GATT API of the BLE Component.
   7:.\Generated_Source\PSoC4/BLE_gatt.c **** 
   8:.\Generated_Source\PSoC4/BLE_gatt.c **** ********************************************************************************
   9:.\Generated_Source\PSoC4/BLE_gatt.c **** Copyright 2014, Cypress Semiconductor Corporation.  All rights reserved.
  10:.\Generated_Source\PSoC4/BLE_gatt.c **** You may use this file only in accordance with the license, terms, conditions,
  11:.\Generated_Source\PSoC4/BLE_gatt.c **** disclaimers, and limitations in the end user license agreement accompanying
  12:.\Generated_Source\PSoC4/BLE_gatt.c **** the software package with which this file was provided.
  13:.\Generated_Source\PSoC4/BLE_gatt.c **** *******************************************************************************/
  14:.\Generated_Source\PSoC4/BLE_gatt.c **** 
  15:.\Generated_Source\PSoC4/BLE_gatt.c **** 
  16:.\Generated_Source\PSoC4/BLE_gatt.c **** #include "BLE_eventHandler.h"
  17:.\Generated_Source\PSoC4/BLE_gatt.c **** 
  18:.\Generated_Source\PSoC4/BLE_gatt.c **** 
  19:.\Generated_Source\PSoC4/BLE_gatt.c **** /***************************************
  20:.\Generated_Source\PSoC4/BLE_gatt.c **** ##Global variables
  21:.\Generated_Source\PSoC4/BLE_gatt.c **** ***************************************/
  22:.\Generated_Source\PSoC4/BLE_gatt.c **** 
  23:.\Generated_Source\PSoC4/BLE_gatt.c **** CYBLE_STATE_T cyBle_state;
  24:.\Generated_Source\PSoC4/BLE_gatt.c **** 
  25:.\Generated_Source\PSoC4/BLE_gatt.c **** 
  26:.\Generated_Source\PSoC4/BLE_gatt.c **** #if(CYBLE_GATT_ROLE_SERVER)
  27:.\Generated_Source\PSoC4/BLE_gatt.c ****     
  28:.\Generated_Source\PSoC4/BLE_gatt.c ****     const CYBLE_GATTS_T cyBle_gatts =
  29:.\Generated_Source\PSoC4/BLE_gatt.c **** {
  30:.\Generated_Source\PSoC4/BLE_gatt.c ****     0x0008u,    /* Handle of the GATT service */
  31:.\Generated_Source\PSoC4/BLE_gatt.c ****     0x000Au,    /* Handle of the Service Changed characteristic */
  32:.\Generated_Source\PSoC4/BLE_gatt.c ****     0x000Bu,    /* Handle of the Client Characteristic Configuration descriptor */
  33:.\Generated_Source\PSoC4/BLE_gatt.c **** };
  34:.\Generated_Source\PSoC4/BLE_gatt.c ****     
  35:.\Generated_Source\PSoC4/BLE_gatt.c ****     static uint8 cyBle_attValues[0x77u] = {
  36:.\Generated_Source\PSoC4/BLE_gatt.c **** /* Device Name */
  37:.\Generated_Source\PSoC4/BLE_gatt.c **** (uint8)'M', (uint8)'y', (uint8)'T', (uint8)'h', (uint8)'e', (uint8)'r', (uint8)'m', (uint8)'o', (ui
  38:.\Generated_Source\PSoC4/BLE_gatt.c **** (uint8)'t', (uint8)'e', (uint8)'r', 
  39:.\Generated_Source\PSoC4/BLE_gatt.c **** 
  40:.\Generated_Source\PSoC4/BLE_gatt.c **** /* Appearance */
  41:.\Generated_Source\PSoC4/BLE_gatt.c **** 0x00u, 0x03u, 
  42:.\Generated_Source\PSoC4/BLE_gatt.c **** 
ARM GAS  C:\Users\Yobely\AppData\Local\Temp\ccMjvHHf.s 			page 11


  43:.\Generated_Source\PSoC4/BLE_gatt.c **** /* Peripheral Preferred Connection Parameters */
  44:.\Generated_Source\PSoC4/BLE_gatt.c **** 0x06u, 0x00u, 0x28u, 0x00u, 0x00u, 0x00u, 0xE8u, 0x03u, 
  45:.\Generated_Source\PSoC4/BLE_gatt.c **** 
  46:.\Generated_Source\PSoC4/BLE_gatt.c **** /* Service Changed */
  47:.\Generated_Source\PSoC4/BLE_gatt.c **** 0x00u, 0x00u, 0x00u, 0x00u, 
  48:.\Generated_Source\PSoC4/BLE_gatt.c **** 
  49:.\Generated_Source\PSoC4/BLE_gatt.c **** /* Temperature Measurement */
  50:.\Generated_Source\PSoC4/BLE_gatt.c **** 0x00u, 0x00u, 0x00u, 0x00u, 0x00u, 
  51:.\Generated_Source\PSoC4/BLE_gatt.c **** 
  52:.\Generated_Source\PSoC4/BLE_gatt.c **** /* Temperature Type */
  53:.\Generated_Source\PSoC4/BLE_gatt.c **** 0x02u, 
  54:.\Generated_Source\PSoC4/BLE_gatt.c **** 
  55:.\Generated_Source\PSoC4/BLE_gatt.c **** /* Intermediate Temperature */
  56:.\Generated_Source\PSoC4/BLE_gatt.c **** 0x00u, 0x00u, 0x00u, 0x00u, 0x00u, 
  57:.\Generated_Source\PSoC4/BLE_gatt.c **** 
  58:.\Generated_Source\PSoC4/BLE_gatt.c **** /* Measurement Interval */
  59:.\Generated_Source\PSoC4/BLE_gatt.c **** 0x01u, 0x00u, 
  60:.\Generated_Source\PSoC4/BLE_gatt.c **** 
  61:.\Generated_Source\PSoC4/BLE_gatt.c **** /* Valid Range */
  62:.\Generated_Source\PSoC4/BLE_gatt.c **** 0x01u, 0x00u, 0x3Cu, 0x00u, 
  63:.\Generated_Source\PSoC4/BLE_gatt.c **** 
  64:.\Generated_Source\PSoC4/BLE_gatt.c **** /* Manufacturer Name String */
  65:.\Generated_Source\PSoC4/BLE_gatt.c **** (uint8)'C', (uint8)'y', (uint8)'p', (uint8)'r', (uint8)'e', (uint8)'s', (uint8)'s', (uint8)' ', (ui
  66:.\Generated_Source\PSoC4/BLE_gatt.c **** (uint8)'m', (uint8)'i', (uint8)'c', (uint8)'o', (uint8)'n', (uint8)'d', (uint8)'u', (uint8)'c', (ui
  67:.\Generated_Source\PSoC4/BLE_gatt.c **** (uint8)'r', 
  68:.\Generated_Source\PSoC4/BLE_gatt.c **** 
  69:.\Generated_Source\PSoC4/BLE_gatt.c **** /* Model Number String */
  70:.\Generated_Source\PSoC4/BLE_gatt.c **** (uint8)'1', (uint8)'.', (uint8)'0', 
  71:.\Generated_Source\PSoC4/BLE_gatt.c **** 
  72:.\Generated_Source\PSoC4/BLE_gatt.c **** /* Serial Number String */
  73:.\Generated_Source\PSoC4/BLE_gatt.c **** (uint8)'*', (uint8)'*', 
  74:.\Generated_Source\PSoC4/BLE_gatt.c **** 
  75:.\Generated_Source\PSoC4/BLE_gatt.c **** /* Hardware Revision String */
  76:.\Generated_Source\PSoC4/BLE_gatt.c **** (uint8)'C', (uint8)'Y', (uint8)'8', (uint8)'C', (uint8)'K', (uint8)'I', (uint8)'T', (uint8)'-', (ui
  77:.\Generated_Source\PSoC4/BLE_gatt.c **** (uint8)'2', (uint8)'-', (uint8)'B', (uint8)'L', (uint8)'E', 
  78:.\Generated_Source\PSoC4/BLE_gatt.c **** 
  79:.\Generated_Source\PSoC4/BLE_gatt.c **** /* Firmware Revision String */
  80:.\Generated_Source\PSoC4/BLE_gatt.c **** (uint8)'*', (uint8)'*', 
  81:.\Generated_Source\PSoC4/BLE_gatt.c **** 
  82:.\Generated_Source\PSoC4/BLE_gatt.c **** /* Software Revision String */
  83:.\Generated_Source\PSoC4/BLE_gatt.c **** (uint8)'P', (uint8)'S', (uint8)'o', (uint8)'C', (uint8)' ', (uint8)'C', (uint8)'r', (uint8)'e', (ui
  84:.\Generated_Source\PSoC4/BLE_gatt.c **** (uint8)'o', (uint8)'r', (uint8)' ', (uint8)'3', (uint8)'.', (uint8)'1', 
  85:.\Generated_Source\PSoC4/BLE_gatt.c **** 
  86:.\Generated_Source\PSoC4/BLE_gatt.c **** /* System ID */
  87:.\Generated_Source\PSoC4/BLE_gatt.c **** 0x00u, 0x00u, 0x00u, 0x00u, 0x00u, 0x00u, 0x00u, 0x00u, 
  88:.\Generated_Source\PSoC4/BLE_gatt.c **** 
  89:.\Generated_Source\PSoC4/BLE_gatt.c **** /* IEEE 11073-20601 Regulatory Certification Data List */
  90:.\Generated_Source\PSoC4/BLE_gatt.c **** 0x00u, 
  91:.\Generated_Source\PSoC4/BLE_gatt.c **** 
  92:.\Generated_Source\PSoC4/BLE_gatt.c **** /* PnP ID */
  93:.\Generated_Source\PSoC4/BLE_gatt.c **** 0x01u, 0x00u, 0x00u, 0x00u, 0x00u, 0x00u, 0x00u, 
  94:.\Generated_Source\PSoC4/BLE_gatt.c **** 
  95:.\Generated_Source\PSoC4/BLE_gatt.c **** };
  96:.\Generated_Source\PSoC4/BLE_gatt.c **** 
  97:.\Generated_Source\PSoC4/BLE_gatt.c **** #if defined(__GNUC__) || defined(__ARMCC_VERSION)
  98:.\Generated_Source\PSoC4/BLE_gatt.c **** const uint8 cyBle_attValuesCCCDFlashMemory[CYBLE_GAP_MAX_BONDED_DEVICE + 1u][CYBLE_GATT_DB_CCCD_COU
  99:.\Generated_Source\PSoC4/BLE_gatt.c **** #elif defined(__ICCARM__)
ARM GAS  C:\Users\Yobely\AppData\Local\Temp\ccMjvHHf.s 			page 12


 100:.\Generated_Source\PSoC4/BLE_gatt.c **** /* The cyBle_attValuesCCCDFlashMemory[] should be aligned to the size of a Flash row */
 101:.\Generated_Source\PSoC4/BLE_gatt.c **** #pragma data_alignment=CY_FLASH_SIZEOF_ROW
 102:.\Generated_Source\PSoC4/BLE_gatt.c **** const uint8 cyBle_attValuesCCCDFlashMemory[CYBLE_GAP_MAX_BONDED_DEVICE + 1u][CYBLE_GATT_DB_CCCD_COU
 103:.\Generated_Source\PSoC4/BLE_gatt.c **** #endif /* defined(__GNUC__) || defined(__ARMCC_VERSION) */
 104:.\Generated_Source\PSoC4/BLE_gatt.c **** {
 105:.\Generated_Source\PSoC4/BLE_gatt.c **** /* Client Characteristic Configuration */
 106:.\Generated_Source\PSoC4/BLE_gatt.c **** 0x00u, 0x00u, 
 107:.\Generated_Source\PSoC4/BLE_gatt.c **** 
 108:.\Generated_Source\PSoC4/BLE_gatt.c **** /* Client Characteristic Configuration */
 109:.\Generated_Source\PSoC4/BLE_gatt.c **** 0x00u, 0x00u, 
 110:.\Generated_Source\PSoC4/BLE_gatt.c **** 
 111:.\Generated_Source\PSoC4/BLE_gatt.c **** /* Client Characteristic Configuration */
 112:.\Generated_Source\PSoC4/BLE_gatt.c **** 0x00u, 0x00u, 
 113:.\Generated_Source\PSoC4/BLE_gatt.c **** 
 114:.\Generated_Source\PSoC4/BLE_gatt.c **** /* Client Characteristic Configuration */
 115:.\Generated_Source\PSoC4/BLE_gatt.c **** 0x00u, 0x00u, 
 116:.\Generated_Source\PSoC4/BLE_gatt.c **** 
 117:.\Generated_Source\PSoC4/BLE_gatt.c **** },
 118:.\Generated_Source\PSoC4/BLE_gatt.c **** {
 119:.\Generated_Source\PSoC4/BLE_gatt.c **** /* Client Characteristic Configuration */
 120:.\Generated_Source\PSoC4/BLE_gatt.c **** 0x00u, 0x00u, 
 121:.\Generated_Source\PSoC4/BLE_gatt.c **** 
 122:.\Generated_Source\PSoC4/BLE_gatt.c **** /* Client Characteristic Configuration */
 123:.\Generated_Source\PSoC4/BLE_gatt.c **** 0x00u, 0x00u, 
 124:.\Generated_Source\PSoC4/BLE_gatt.c **** 
 125:.\Generated_Source\PSoC4/BLE_gatt.c **** /* Client Characteristic Configuration */
 126:.\Generated_Source\PSoC4/BLE_gatt.c **** 0x00u, 0x00u, 
 127:.\Generated_Source\PSoC4/BLE_gatt.c **** 
 128:.\Generated_Source\PSoC4/BLE_gatt.c **** /* Client Characteristic Configuration */
 129:.\Generated_Source\PSoC4/BLE_gatt.c **** 0x00u, 0x00u, 
 130:.\Generated_Source\PSoC4/BLE_gatt.c **** 
 131:.\Generated_Source\PSoC4/BLE_gatt.c **** },
 132:.\Generated_Source\PSoC4/BLE_gatt.c **** {
 133:.\Generated_Source\PSoC4/BLE_gatt.c **** /* Client Characteristic Configuration */
 134:.\Generated_Source\PSoC4/BLE_gatt.c **** 0x00u, 0x00u, 
 135:.\Generated_Source\PSoC4/BLE_gatt.c **** 
 136:.\Generated_Source\PSoC4/BLE_gatt.c **** /* Client Characteristic Configuration */
 137:.\Generated_Source\PSoC4/BLE_gatt.c **** 0x00u, 0x00u, 
 138:.\Generated_Source\PSoC4/BLE_gatt.c **** 
 139:.\Generated_Source\PSoC4/BLE_gatt.c **** /* Client Characteristic Configuration */
 140:.\Generated_Source\PSoC4/BLE_gatt.c **** 0x00u, 0x00u, 
 141:.\Generated_Source\PSoC4/BLE_gatt.c **** 
 142:.\Generated_Source\PSoC4/BLE_gatt.c **** /* Client Characteristic Configuration */
 143:.\Generated_Source\PSoC4/BLE_gatt.c **** 0x00u, 0x00u, 
 144:.\Generated_Source\PSoC4/BLE_gatt.c **** 
 145:.\Generated_Source\PSoC4/BLE_gatt.c **** },
 146:.\Generated_Source\PSoC4/BLE_gatt.c **** {
 147:.\Generated_Source\PSoC4/BLE_gatt.c **** /* Client Characteristic Configuration */
 148:.\Generated_Source\PSoC4/BLE_gatt.c **** 0x00u, 0x00u, 
 149:.\Generated_Source\PSoC4/BLE_gatt.c **** 
 150:.\Generated_Source\PSoC4/BLE_gatt.c **** /* Client Characteristic Configuration */
 151:.\Generated_Source\PSoC4/BLE_gatt.c **** 0x00u, 0x00u, 
 152:.\Generated_Source\PSoC4/BLE_gatt.c **** 
 153:.\Generated_Source\PSoC4/BLE_gatt.c **** /* Client Characteristic Configuration */
 154:.\Generated_Source\PSoC4/BLE_gatt.c **** 0x00u, 0x00u, 
 155:.\Generated_Source\PSoC4/BLE_gatt.c **** 
 156:.\Generated_Source\PSoC4/BLE_gatt.c **** /* Client Characteristic Configuration */
ARM GAS  C:\Users\Yobely\AppData\Local\Temp\ccMjvHHf.s 			page 13


 157:.\Generated_Source\PSoC4/BLE_gatt.c **** 0x00u, 0x00u, 
 158:.\Generated_Source\PSoC4/BLE_gatt.c **** 
 159:.\Generated_Source\PSoC4/BLE_gatt.c **** },
 160:.\Generated_Source\PSoC4/BLE_gatt.c **** {
 161:.\Generated_Source\PSoC4/BLE_gatt.c **** /* Client Characteristic Configuration */
 162:.\Generated_Source\PSoC4/BLE_gatt.c **** 0x00u, 0x00u, 
 163:.\Generated_Source\PSoC4/BLE_gatt.c **** 
 164:.\Generated_Source\PSoC4/BLE_gatt.c **** /* Client Characteristic Configuration */
 165:.\Generated_Source\PSoC4/BLE_gatt.c **** 0x00u, 0x00u, 
 166:.\Generated_Source\PSoC4/BLE_gatt.c **** 
 167:.\Generated_Source\PSoC4/BLE_gatt.c **** /* Client Characteristic Configuration */
 168:.\Generated_Source\PSoC4/BLE_gatt.c **** 0x00u, 0x00u, 
 169:.\Generated_Source\PSoC4/BLE_gatt.c **** 
 170:.\Generated_Source\PSoC4/BLE_gatt.c **** /* Client Characteristic Configuration */
 171:.\Generated_Source\PSoC4/BLE_gatt.c **** 0x00u, 0x00u, 
 172:.\Generated_Source\PSoC4/BLE_gatt.c **** 
 173:.\Generated_Source\PSoC4/BLE_gatt.c **** },
 174:.\Generated_Source\PSoC4/BLE_gatt.c **** };
 175:.\Generated_Source\PSoC4/BLE_gatt.c **** uint8 cyBle_attValuesCCCD[CYBLE_GATT_DB_CCCD_COUNT];
 176:.\Generated_Source\PSoC4/BLE_gatt.c **** 
 177:.\Generated_Source\PSoC4/BLE_gatt.c **** const CYBLE_GATTS_DB_T cyBle_gattDB[0x2Bu] = {
 178:.\Generated_Source\PSoC4/BLE_gatt.c **** { 0x0001u, 0x2800u /* Primary service                     */, 0x00000001u /*        */, 0x0007u, {{
 179:.\Generated_Source\PSoC4/BLE_gatt.c **** { 0x0002u, 0x2803u /* Characteristic                      */, 0x00000201u /* rd     */, 0x0003u, {{
 180:.\Generated_Source\PSoC4/BLE_gatt.c **** { 0x0003u, 0x2A00u /* Device Name                         */, 0x00000201u /* rd     */, 0x0003u, {{
 181:.\Generated_Source\PSoC4/BLE_gatt.c **** { 0x0004u, 0x2803u /* Characteristic                      */, 0x00000201u /* rd     */, 0x0005u, {{
 182:.\Generated_Source\PSoC4/BLE_gatt.c **** { 0x0005u, 0x2A01u /* Appearance                          */, 0x00000201u /* rd     */, 0x0005u, {{
 183:.\Generated_Source\PSoC4/BLE_gatt.c **** { 0x0006u, 0x2803u /* Characteristic                      */, 0x00000201u /* rd     */, 0x0007u, {{
 184:.\Generated_Source\PSoC4/BLE_gatt.c **** { 0x0007u, 0x2A04u /* Peripheral Preferred Connection Par */, 0x00000201u /* rd     */, 0x0007u, {{
 185:.\Generated_Source\PSoC4/BLE_gatt.c **** { 0x0008u, 0x2800u /* Primary service                     */, 0x00000001u /*        */, 0x000Bu, {{
 186:.\Generated_Source\PSoC4/BLE_gatt.c **** { 0x0009u, 0x2803u /* Characteristic                      */, 0x00002201u /* rd,ind */, 0x000Bu, {{
 187:.\Generated_Source\PSoC4/BLE_gatt.c **** { 0x000Au, 0x2A05u /* Service Changed                     */, 0x00002201u /* rd,ind */, 0x000Bu, {{
 188:.\Generated_Source\PSoC4/BLE_gatt.c **** { 0x000Bu, 0x2902u /* Client Characteristic Configuration */, 0x00000A04u /* rd,wr  */, 0x000Bu, {{
 189:.\Generated_Source\PSoC4/BLE_gatt.c **** { 0x000Cu, 0x2800u /* Primary service                     */, 0x00000001u /*        */, 0x0018u, {{
 190:.\Generated_Source\PSoC4/BLE_gatt.c **** { 0x000Du, 0x2803u /* Characteristic                      */, 0x00002001u /* ind    */, 0x000Fu, {{
 191:.\Generated_Source\PSoC4/BLE_gatt.c **** { 0x000Eu, 0x2A1Cu /* Temperature Measurement             */, 0x00002000u /* ind    */, 0x000Fu, {{
 192:.\Generated_Source\PSoC4/BLE_gatt.c **** { 0x000Fu, 0x2902u /* Client Characteristic Configuration */, 0x00000A04u /* rd,wr  */, 0x000Fu, {{
 193:.\Generated_Source\PSoC4/BLE_gatt.c **** { 0x0010u, 0x2803u /* Characteristic                      */, 0x00000201u /* rd     */, 0x0011u, {{
 194:.\Generated_Source\PSoC4/BLE_gatt.c **** { 0x0011u, 0x2A1Du /* Temperature Type                    */, 0x00000201u /* rd     */, 0x0011u, {{
 195:.\Generated_Source\PSoC4/BLE_gatt.c **** { 0x0012u, 0x2803u /* Characteristic                      */, 0x00001001u /* ntf    */, 0x0014u, {{
 196:.\Generated_Source\PSoC4/BLE_gatt.c **** { 0x0013u, 0x2A1Eu /* Intermediate Temperature            */, 0x00001000u /* ntf    */, 0x0014u, {{
 197:.\Generated_Source\PSoC4/BLE_gatt.c **** { 0x0014u, 0x2902u /* Client Characteristic Configuration */, 0x00000A04u /* rd,wr  */, 0x0014u, {{
 198:.\Generated_Source\PSoC4/BLE_gatt.c **** { 0x0015u, 0x2803u /* Characteristic                      */, 0x00000A01u /* rd,wr  */, 0x0018u, {{
 199:.\Generated_Source\PSoC4/BLE_gatt.c **** { 0x0016u, 0x2A21u /* Measurement Interval                */, 0x00000A04u /* rd,wr  */, 0x0018u, {{
 200:.\Generated_Source\PSoC4/BLE_gatt.c **** { 0x0017u, 0x2902u /* Client Characteristic Configuration */, 0x00000A04u /* rd,wr  */, 0x0017u, {{
 201:.\Generated_Source\PSoC4/BLE_gatt.c **** { 0x0018u, 0x2906u /* Valid Range                         */, 0x00000201u /* rd     */, 0x0018u, {{
 202:.\Generated_Source\PSoC4/BLE_gatt.c **** { 0x0019u, 0x2800u /* Primary service                     */, 0x00000001u /*        */, 0x002Bu, {{
 203:.\Generated_Source\PSoC4/BLE_gatt.c **** { 0x001Au, 0x2803u /* Characteristic                      */, 0x00000201u /* rd     */, 0x001Bu, {{
 204:.\Generated_Source\PSoC4/BLE_gatt.c **** { 0x001Bu, 0x2A29u /* Manufacturer Name String            */, 0x00000201u /* rd     */, 0x001Bu, {{
 205:.\Generated_Source\PSoC4/BLE_gatt.c **** { 0x001Cu, 0x2803u /* Characteristic                      */, 0x00000201u /* rd     */, 0x001Du, {{
 206:.\Generated_Source\PSoC4/BLE_gatt.c **** { 0x001Du, 0x2A24u /* Model Number String                 */, 0x00000201u /* rd     */, 0x001Du, {{
 207:.\Generated_Source\PSoC4/BLE_gatt.c **** { 0x001Eu, 0x2803u /* Characteristic                      */, 0x00000201u /* rd     */, 0x001Fu, {{
 208:.\Generated_Source\PSoC4/BLE_gatt.c **** { 0x001Fu, 0x2A25u /* Serial Number String                */, 0x00000201u /* rd     */, 0x001Fu, {{
 209:.\Generated_Source\PSoC4/BLE_gatt.c **** { 0x0020u, 0x2803u /* Characteristic                      */, 0x00000201u /* rd     */, 0x0021u, {{
 210:.\Generated_Source\PSoC4/BLE_gatt.c **** { 0x0021u, 0x2A27u /* Hardware Revision String            */, 0x00000201u /* rd     */, 0x0021u, {{
 211:.\Generated_Source\PSoC4/BLE_gatt.c **** { 0x0022u, 0x2803u /* Characteristic                      */, 0x00000201u /* rd     */, 0x0023u, {{
 212:.\Generated_Source\PSoC4/BLE_gatt.c **** { 0x0023u, 0x2A26u /* Firmware Revision String            */, 0x00000201u /* rd     */, 0x0023u, {{
 213:.\Generated_Source\PSoC4/BLE_gatt.c **** { 0x0024u, 0x2803u /* Characteristic                      */, 0x00000201u /* rd     */, 0x0025u, {{
ARM GAS  C:\Users\Yobely\AppData\Local\Temp\ccMjvHHf.s 			page 14


 214:.\Generated_Source\PSoC4/BLE_gatt.c **** { 0x0025u, 0x2A28u /* Software Revision String            */, 0x00000201u /* rd     */, 0x0025u, {{
 215:.\Generated_Source\PSoC4/BLE_gatt.c **** { 0x0026u, 0x2803u /* Characteristic                      */, 0x00000201u /* rd     */, 0x0027u, {{
 216:.\Generated_Source\PSoC4/BLE_gatt.c **** { 0x0027u, 0x2A23u /* System ID                           */, 0x00000201u /* rd     */, 0x0027u, {{
 217:.\Generated_Source\PSoC4/BLE_gatt.c **** { 0x0028u, 0x2803u /* Characteristic                      */, 0x00000201u /* rd     */, 0x0029u, {{
 218:.\Generated_Source\PSoC4/BLE_gatt.c **** { 0x0029u, 0x2A2Au /* IEEE 11073-20601 Regulatory Certifi */, 0x00000201u /* rd     */, 0x0029u, {{
 219:.\Generated_Source\PSoC4/BLE_gatt.c **** { 0x002Au, 0x2803u /* Characteristic                      */, 0x00000201u /* rd     */, 0x002Bu, {{
 220:.\Generated_Source\PSoC4/BLE_gatt.c **** { 0x002Bu, 0x2A50u /* PnP ID                              */, 0x00000201u /* rd     */, 0x002Bu, {{
 221:.\Generated_Source\PSoC4/BLE_gatt.c **** };
 222:.\Generated_Source\PSoC4/BLE_gatt.c **** 
 223:.\Generated_Source\PSoC4/BLE_gatt.c **** 
 224:.\Generated_Source\PSoC4/BLE_gatt.c **** #endif /* (CYBLE_GATT_ROLE_SERVER) */
 225:.\Generated_Source\PSoC4/BLE_gatt.c **** 
 226:.\Generated_Source\PSoC4/BLE_gatt.c **** #if(CYBLE_GATT_ROLE_CLIENT)
 227:.\Generated_Source\PSoC4/BLE_gatt.c ****     
 228:.\Generated_Source\PSoC4/BLE_gatt.c **** CYBLE_CLIENT_STATE_T cyBle_clientState;
 229:.\Generated_Source\PSoC4/BLE_gatt.c **** CYBLE_GATTC_T cyBle_gattc;
 230:.\Generated_Source\PSoC4/BLE_gatt.c ****     
 231:.\Generated_Source\PSoC4/BLE_gatt.c **** #endif /* (CYBLE_GATT_ROLE_CLIENT) */
 232:.\Generated_Source\PSoC4/BLE_gatt.c **** 
 233:.\Generated_Source\PSoC4/BLE_gatt.c **** 
 234:.\Generated_Source\PSoC4/BLE_gatt.c **** #if(CYBLE_GATT_ROLE_SERVER)
 235:.\Generated_Source\PSoC4/BLE_gatt.c **** 
 236:.\Generated_Source\PSoC4/BLE_gatt.c **** /****************************************************************************** 
 237:.\Generated_Source\PSoC4/BLE_gatt.c **** ##Function Name: CyBle_GattsReInitGattDb
 238:.\Generated_Source\PSoC4/BLE_gatt.c **** *******************************************************************************
 239:.\Generated_Source\PSoC4/BLE_gatt.c **** 
 240:.\Generated_Source\PSoC4/BLE_gatt.c **** Summary:
 241:.\Generated_Source\PSoC4/BLE_gatt.c ****  Reinitializes the GATT database.
 242:.\Generated_Source\PSoC4/BLE_gatt.c **** 
 243:.\Generated_Source\PSoC4/BLE_gatt.c **** Parameters:
 244:.\Generated_Source\PSoC4/BLE_gatt.c ****  None
 245:.\Generated_Source\PSoC4/BLE_gatt.c **** 
 246:.\Generated_Source\PSoC4/BLE_gatt.c **** Return:
 247:.\Generated_Source\PSoC4/BLE_gatt.c ****  CYBLE_API_RESULT_T: An API result states if the API succeeded or failed with
 248:.\Generated_Source\PSoC4/BLE_gatt.c ****  error codes:
 249:.\Generated_Source\PSoC4/BLE_gatt.c ****   * CYBLE_ERROR_OK: GATT database was reinitialized successfully
 250:.\Generated_Source\PSoC4/BLE_gatt.c ****   * CYBLE_ERROR_INVALID_STATE: If the function is called in any state except
 251:.\Generated_Source\PSoC4/BLE_gatt.c ****                                 CYBLE_STATE_DISCONNECTED.
 252:.\Generated_Source\PSoC4/BLE_gatt.c ****   * Any of the CyBle_GattsDbRegister() stack API function return values.
 253:.\Generated_Source\PSoC4/BLE_gatt.c **** 
 254:.\Generated_Source\PSoC4/BLE_gatt.c **** ******************************************************************************/
 255:.\Generated_Source\PSoC4/BLE_gatt.c **** CYBLE_API_RESULT_T CyBle_GattsReInitGattDb(void)
 256:.\Generated_Source\PSoC4/BLE_gatt.c **** {
 517              		.loc 1 256 0
 518              		.cfi_startproc
 519 0000 90B5     		push	{r4, r7, lr}
 520              		.cfi_def_cfa_offset 12
 521              		.cfi_offset 4, -12
 522              		.cfi_offset 7, -8
 523              		.cfi_offset 14, -4
 524 0002 83B0     		sub	sp, sp, #12
 525              		.cfi_def_cfa_offset 24
 526 0004 00AF     		add	r7, sp, #0
 527              		.cfi_def_cfa_register 7
 257:.\Generated_Source\PSoC4/BLE_gatt.c ****     CYBLE_API_RESULT_T apiResult;
 258:.\Generated_Source\PSoC4/BLE_gatt.c ****     
 259:.\Generated_Source\PSoC4/BLE_gatt.c ****     if(CYBLE_STATE_DISCONNECTED == CyBle_GetState())
ARM GAS  C:\Users\Yobely\AppData\Local\Temp\ccMjvHHf.s 			page 15


 528              		.loc 1 259 0
 529 0006 0C4B     		ldr	r3, .L5
 530 0008 1B78     		ldrb	r3, [r3]
 531 000a 042B     		cmp	r3, #4
 532 000c 09D1     		bne	.L2
 260:.\Generated_Source\PSoC4/BLE_gatt.c ****     {
 261:.\Generated_Source\PSoC4/BLE_gatt.c ****         apiResult = CyBle_GattsDbRegister(cyBle_gattDB, CYBLE_GATT_DB_INDEX_COUNT, CYBLE_GATT_DB_MA
 533              		.loc 1 261 0
 534 000e BC1D     		add	r4, r7, #6
 535 0010 0A4B     		ldr	r3, .L5+4
 536 0012 181C     		mov	r0, r3
 537 0014 2B21     		mov	r1, #43
 538 0016 1522     		mov	r2, #21
 539 0018 FFF7FEFF 		bl	CyBle_GattsDbRegister
 540 001c 031C     		mov	r3, r0
 541 001e 2380     		strh	r3, [r4]
 542 0020 03E0     		b	.L3
 543              	.L2:
 262:.\Generated_Source\PSoC4/BLE_gatt.c ****     }
 263:.\Generated_Source\PSoC4/BLE_gatt.c ****     else
 264:.\Generated_Source\PSoC4/BLE_gatt.c ****     {
 265:.\Generated_Source\PSoC4/BLE_gatt.c ****         apiResult = CYBLE_ERROR_INVALID_STATE;
 544              		.loc 1 265 0
 545 0022 BB1D     		add	r3, r7, #6
 546 0024 8322     		mov	r2, #131
 547 0026 5200     		lsl	r2, r2, #1
 548 0028 1A80     		strh	r2, [r3]
 549              	.L3:
 266:.\Generated_Source\PSoC4/BLE_gatt.c ****     }
 267:.\Generated_Source\PSoC4/BLE_gatt.c ****     
 268:.\Generated_Source\PSoC4/BLE_gatt.c ****     return(apiResult);
 550              		.loc 1 268 0
 551 002a BB1D     		add	r3, r7, #6
 552 002c 1B88     		ldrh	r3, [r3]
 269:.\Generated_Source\PSoC4/BLE_gatt.c **** }
 553              		.loc 1 269 0
 554 002e 181C     		mov	r0, r3
 555 0030 BD46     		mov	sp, r7
 556 0032 03B0     		add	sp, sp, #12
 557              		@ sp needed
 558 0034 90BD     		pop	{r4, r7, pc}
 559              	.L6:
 560 0036 C046     		.align	2
 561              	.L5:
 562 0038 00000000 		.word	cyBle_state
 563 003c 00000000 		.word	cyBle_gattDB
 564              		.cfi_endproc
 565              	.LFE2:
 566              		.size	CyBle_GattsReInitGattDb, .-CyBle_GattsReInitGattDb
 567              		.section	.text.CyBle_GattsWriteEventHandler,"ax",%progbits
 568              		.align	2
 569              		.global	CyBle_GattsWriteEventHandler
 570              		.code	16
 571              		.thumb_func
 572              		.type	CyBle_GattsWriteEventHandler, %function
 573              	CyBle_GattsWriteEventHandler:
 574              	.LFB3:
ARM GAS  C:\Users\Yobely\AppData\Local\Temp\ccMjvHHf.s 			page 16


 270:.\Generated_Source\PSoC4/BLE_gatt.c **** 
 271:.\Generated_Source\PSoC4/BLE_gatt.c **** 
 272:.\Generated_Source\PSoC4/BLE_gatt.c **** /****************************************************************************** 
 273:.\Generated_Source\PSoC4/BLE_gatt.c **** ##Function Name: CyBle_GattsWriteEventHandler
 274:.\Generated_Source\PSoC4/BLE_gatt.c **** *******************************************************************************
 275:.\Generated_Source\PSoC4/BLE_gatt.c **** 
 276:.\Generated_Source\PSoC4/BLE_gatt.c **** Summary:
 277:.\Generated_Source\PSoC4/BLE_gatt.c ****  Handles the Write Request Event for GATT service.
 278:.\Generated_Source\PSoC4/BLE_gatt.c **** 
 279:.\Generated_Source\PSoC4/BLE_gatt.c **** Parameters:
 280:.\Generated_Source\PSoC4/BLE_gatt.c ****  *eventParam: The pointer to the data structure specified by the event.
 281:.\Generated_Source\PSoC4/BLE_gatt.c **** 
 282:.\Generated_Source\PSoC4/BLE_gatt.c **** Return:
 283:.\Generated_Source\PSoC4/BLE_gatt.c ****  * CYBLE_GATT_ERR_CODE_T: An API result returns one of the following status 
 284:.\Generated_Source\PSoC4/BLE_gatt.c ****     values
 285:.\Generated_Source\PSoC4/BLE_gatt.c ****  * CYBLE_GATT_ERR_NONE - Write is successful.
 286:.\Generated_Source\PSoC4/BLE_gatt.c **** 
 287:.\Generated_Source\PSoC4/BLE_gatt.c **** ******************************************************************************/
 288:.\Generated_Source\PSoC4/BLE_gatt.c **** CYBLE_GATT_ERR_CODE_T CyBle_GattsWriteEventHandler(CYBLE_GATTS_WRITE_REQ_PARAM_T *eventParam)
 289:.\Generated_Source\PSoC4/BLE_gatt.c **** {
 575              		.loc 1 289 0
 576              		.cfi_startproc
 577 0000 90B5     		push	{r4, r7, lr}
 578              		.cfi_def_cfa_offset 12
 579              		.cfi_offset 4, -12
 580              		.cfi_offset 7, -8
 581              		.cfi_offset 14, -4
 582 0002 85B0     		sub	sp, sp, #20
 583              		.cfi_def_cfa_offset 32
 584 0004 00AF     		add	r7, sp, #0
 585              		.cfi_def_cfa_register 7
 586 0006 7860     		str	r0, [r7, #4]
 290:.\Generated_Source\PSoC4/BLE_gatt.c ****     CYBLE_GATT_ERR_CODE_T gattErr = CYBLE_GATT_ERR_NONE;
 587              		.loc 1 290 0
 588 0008 3B1C     		mov	r3, r7
 589 000a 0F33     		add	r3, r3, #15
 590 000c 0022     		mov	r2, #0
 591 000e 1A70     		strb	r2, [r3]
 291:.\Generated_Source\PSoC4/BLE_gatt.c ****     
 292:.\Generated_Source\PSoC4/BLE_gatt.c ****     /* Client Characteristic Configuration descriptor write request */
 293:.\Generated_Source\PSoC4/BLE_gatt.c ****     if(eventParam->handleValPair.attrHandle == cyBle_gatts.cccdHandle)
 592              		.loc 1 293 0
 593 0010 7B68     		ldr	r3, [r7, #4]
 594 0012 9A89     		ldrh	r2, [r3, #12]
 595 0014 0B23     		mov	r3, #11
 596 0016 9A42     		cmp	r2, r3
 597 0018 37D1     		bne	.L8
 294:.\Generated_Source\PSoC4/BLE_gatt.c ****     {
 295:.\Generated_Source\PSoC4/BLE_gatt.c ****         /* Store value to database */
 296:.\Generated_Source\PSoC4/BLE_gatt.c ****         gattErr = CyBle_GattsWriteAttributeValue(&eventParam->handleValPair, 0u, 
 598              		.loc 1 296 0
 599 001a 7B68     		ldr	r3, [r7, #4]
 600 001c 1A1D     		add	r2, r3, #4
 601 001e 7B68     		ldr	r3, [r7, #4]
 602 0020 3C1C     		mov	r4, r7
 603 0022 0F34     		add	r4, r4, #15
 604 0024 101C     		mov	r0, r2
ARM GAS  C:\Users\Yobely\AppData\Local\Temp\ccMjvHHf.s 			page 17


 605 0026 0021     		mov	r1, #0
 606 0028 1A1C     		mov	r2, r3
 607 002a 4023     		mov	r3, #64
 608 002c FFF7FEFF 		bl	CyBle_GattsWriteAttributeValue
 609 0030 031C     		mov	r3, r0
 610 0032 2370     		strb	r3, [r4]
 297:.\Generated_Source\PSoC4/BLE_gatt.c ****                         &eventParam->connHandle, CYBLE_GATT_DB_PEER_INITIATED);
 298:.\Generated_Source\PSoC4/BLE_gatt.c ****         
 299:.\Generated_Source\PSoC4/BLE_gatt.c ****         if(CYBLE_GATT_ERR_NONE == gattErr)
 611              		.loc 1 299 0
 612 0034 3B1C     		mov	r3, r7
 613 0036 0F33     		add	r3, r3, #15
 614 0038 1B78     		ldrb	r3, [r3]
 615 003a 002B     		cmp	r3, #0
 616 003c 1DD1     		bne	.L9
 300:.\Generated_Source\PSoC4/BLE_gatt.c ****         {
 301:.\Generated_Source\PSoC4/BLE_gatt.c ****             if(CYBLE_IS_INDICATION_ENABLED_IN_PTR(eventParam->handleValPair.value.val))
 617              		.loc 1 301 0
 618 003e 7B68     		ldr	r3, [r7, #4]
 619 0040 5B68     		ldr	r3, [r3, #4]
 620 0042 181C     		mov	r0, r3
 621 0044 FFF7FEFF 		bl	CyBle_Get16ByPtr
 622 0048 031C     		mov	r3, r0
 623 004a 1A1C     		mov	r2, r3
 624 004c 0223     		mov	r3, #2
 625 004e 1340     		and	r3, r2
 626 0050 9BB2     		uxth	r3, r3
 627 0052 002B     		cmp	r3, #0
 628 0054 08D0     		beq	.L10
 302:.\Generated_Source\PSoC4/BLE_gatt.c ****             {
 303:.\Generated_Source\PSoC4/BLE_gatt.c ****                 CyBle_ApplCallback((uint32)CYBLE_EVT_GATTS_INDICATION_ENABLED, eventParam);
 629              		.loc 1 303 0
 630 0056 104B     		ldr	r3, .L12
 631 0058 1B68     		ldr	r3, [r3]
 632 005a 8222     		mov	r2, #130
 633 005c 5100     		lsl	r1, r2, #1
 634 005e 7A68     		ldr	r2, [r7, #4]
 635 0060 081C     		mov	r0, r1
 636 0062 111C     		mov	r1, r2
 637 0064 9847     		blx	r3
 638 0066 08E0     		b	.L9
 639              	.L10:
 304:.\Generated_Source\PSoC4/BLE_gatt.c ****             }
 305:.\Generated_Source\PSoC4/BLE_gatt.c ****             else
 306:.\Generated_Source\PSoC4/BLE_gatt.c ****             {
 307:.\Generated_Source\PSoC4/BLE_gatt.c ****                 CyBle_ApplCallback((uint32)CYBLE_EVT_GATTS_INDICATION_DISABLED, eventParam);
 640              		.loc 1 307 0
 641 0068 0B4B     		ldr	r3, .L12
 642 006a 1B68     		ldr	r3, [r3]
 643 006c 0622     		mov	r2, #6
 644 006e 111C     		mov	r1, r2
 645 0070 FF31     		add	r1, r1, #255
 646 0072 7A68     		ldr	r2, [r7, #4]
 647 0074 081C     		mov	r0, r1
 648 0076 111C     		mov	r1, r2
 649 0078 9847     		blx	r3
 650              	.L9:
ARM GAS  C:\Users\Yobely\AppData\Local\Temp\ccMjvHHf.s 			page 18


 308:.\Generated_Source\PSoC4/BLE_gatt.c ****             }
 309:.\Generated_Source\PSoC4/BLE_gatt.c ****         }
 310:.\Generated_Source\PSoC4/BLE_gatt.c ****         cyBle_eventHandlerFlag &= (uint8)~CYBLE_CALLBACK;
 651              		.loc 1 310 0
 652 007a 084B     		ldr	r3, .L12+4
 653 007c 1B78     		ldrb	r3, [r3]
 654 007e DBB2     		uxtb	r3, r3
 655 0080 0122     		mov	r2, #1
 656 0082 9343     		bic	r3, r2
 657 0084 DAB2     		uxtb	r2, r3
 658 0086 054B     		ldr	r3, .L12+4
 659 0088 1A70     		strb	r2, [r3]
 660              	.L8:
 311:.\Generated_Source\PSoC4/BLE_gatt.c ****     }
 312:.\Generated_Source\PSoC4/BLE_gatt.c ****     return (gattErr);
 661              		.loc 1 312 0
 662 008a 3B1C     		mov	r3, r7
 663 008c 0F33     		add	r3, r3, #15
 664 008e 1B78     		ldrb	r3, [r3]
 313:.\Generated_Source\PSoC4/BLE_gatt.c **** }
 665              		.loc 1 313 0
 666 0090 181C     		mov	r0, r3
 667 0092 BD46     		mov	sp, r7
 668 0094 05B0     		add	sp, sp, #20
 669              		@ sp needed
 670 0096 90BD     		pop	{r4, r7, pc}
 671              	.L13:
 672              		.align	2
 673              	.L12:
 674 0098 00000000 		.word	CyBle_ApplCallback
 675 009c 00000000 		.word	cyBle_eventHandlerFlag
 676              		.cfi_endproc
 677              	.LFE3:
 678              		.size	CyBle_GattsWriteEventHandler, .-CyBle_GattsWriteEventHandler
 679              		.text
 680              	.Letext0:
 681              		.file 2 ".\\Generated_Source\\PSoC4\\cytypes.h"
 682              		.file 3 ".\\Generated_Source\\PSoC4\\BLE_Stack.h"
 683              		.file 4 ".\\Generated_Source\\PSoC4\\BLE_StackGatt.h"
 684              		.file 5 ".\\Generated_Source\\PSoC4\\BLE_StackGattServer.h"
 685              		.file 6 ".\\Generated_Source\\PSoC4\\BLE_StackGattDb.h"
 686              		.file 7 ".\\Generated_Source\\PSoC4\\BLE.h"
 687              		.file 8 ".\\Generated_Source\\PSoC4\\BLE_gatt.h"
 688              		.file 9 ".\\Generated_Source\\PSoC4\\BLE_dis.h"
 689              		.file 10 ".\\Generated_Source\\PSoC4\\BLE_hts.h"
 690              		.file 11 ".\\Generated_Source\\PSoC4\\BLE_eventHandler.h"