ARM GAS  C:\Users\Yobely\AppData\Local\Temp\ccU5OWyg.s 			page 1


   1              		.cpu cortex-m0
   2              		.fpu softvfp
   3              		.eabi_attribute 20, 1
   4              		.eabi_attribute 21, 1
   5              		.eabi_attribute 23, 3
   6              		.eabi_attribute 24, 1
   7              		.eabi_attribute 25, 1
   8              		.eabi_attribute 26, 1
   9              		.eabi_attribute 30, 6
  10              		.eabi_attribute 34, 0
  11              		.eabi_attribute 18, 4
  12              		.code	16
  13              		.file	"main.c"
  14              		.text
  15              	.Ltext0:
  16              		.cfi_sections	.debug_frame
  17              		.section	.text.main,"ax",%progbits
  18              		.align	2
  19              		.global	main
  20              		.code	16
  21              		.thumb_func
  22              		.type	main, %function
  23              	main:
  24              	.LFB35:
  25              		.file 1 ".\\main.c"
   1:.\main.c      **** /****************************************************************************
   2:.\main.c      **** * File Name: main.c
   3:.\main.c      **** *
   4:.\main.c      **** * Version: 1.0
   5:.\main.c      **** *
   6:.\main.c      **** * Description:
   7:.\main.c      **** * This file implements the system functions.
   8:.\main.c      **** *
   9:.\main.c      **** * Note:
  10:.\main.c      **** * 
  11:.\main.c      **** * Owner:
  12:.\main.c      **** * PMAD
  13:.\main.c      **** *
  14:.\main.c      **** ******************************************************************************
  15:.\main.c      **** * Copyright (2014), Cypress Semiconductor Corporation.
  16:.\main.c      **** ******************************************************************************
  17:.\main.c      **** * This software is owned by Cypress Semiconductor Corporation (Cypress) and is
  18:.\main.c      **** * protected by and subject to worldwide patent protection (United States and
  19:.\main.c      **** * foreign), United States copyright laws and international treaty provisions.
  20:.\main.c      **** * Cypress hereby grants to licensee a personal, non-exclusive, non-transferable
  21:.\main.c      **** * license to copy, use, modify, create derivative works of, and compile the
  22:.\main.c      **** * Cypress Source Code and derivative works for the sole purpose of creating
  23:.\main.c      **** * custom software in support of licensee product to be used only in conjunction
  24:.\main.c      **** * with a Cypress integrated circuit as specified in the applicable agreement.
  25:.\main.c      **** * Any reproduction, modification, translation, compilation, or representation of
  26:.\main.c      **** * this software except as specified above is prohibited without the express
  27:.\main.c      **** * written permission of Cypress.
  28:.\main.c      **** *
  29:.\main.c      **** * Disclaimer: CYPRESS MAKES NO WARRANTY OF ANY KIND, EXPRESS OR IMPLIED, WITH
  30:.\main.c      **** * REGARD TO THIS MATERIAL, INCLUDING, BUT NOT LIMITED TO, THE IMPLIED
  31:.\main.c      **** * WARRANTIES OF MERCHANTABILITY AND FITNESS FOR A PARTICULAR PURPOSE.
  32:.\main.c      **** * Cypress reserves the right to make changes without further notice to the
ARM GAS  C:\Users\Yobely\AppData\Local\Temp\ccU5OWyg.s 			page 2


  33:.\main.c      **** * materials described herein. Cypress does not assume any liability arising out
  34:.\main.c      **** * of the application or use of any product or circuit described herein. Cypress
  35:.\main.c      **** * does not authorize its products for use as critical components in life-support
  36:.\main.c      **** * systems where a malfunction or failure may reasonably be expected to result in
  37:.\main.c      **** * significant injury to the user. The inclusion of Cypress' product in a life-
  38:.\main.c      **** * support systems application implies that the manufacturer assumes all risk of
  39:.\main.c      **** * such use and in doing so indemnifies Cypress against all charges. Use may be
  40:.\main.c      **** * limited by and subject to the applicable Cypress software license agreement.
  41:.\main.c      **** *****************************************************************************/
  42:.\main.c      **** 
  43:.\main.c      **** 
  44:.\main.c      **** /*****************************************************************************
  45:.\main.c      **** * Included headers
  46:.\main.c      **** *****************************************************************************/
  47:.\main.c      **** #include <project.h>
  48:.\main.c      **** #include "CommonFunctions.h"
  49:.\main.c      **** #include "Temperature.h"
  50:.\main.c      **** #include "BLE_HTSS.h"
  51:.\main.c      **** 
  52:.\main.c      **** /*****************************************************************************
  53:.\main.c      **** * Function Name: main()
  54:.\main.c      **** ******************************************************************************
  55:.\main.c      **** * Summary:
  56:.\main.c      **** * Central function which controls the application flow
  57:.\main.c      **** *
  58:.\main.c      **** * Parameters:
  59:.\main.c      **** * None
  60:.\main.c      **** *
  61:.\main.c      **** * Return:
  62:.\main.c      **** * None
  63:.\main.c      **** *
  64:.\main.c      **** * Theory:
  65:.\main.c      **** * Central function which is entered on power up. This function controls
  66:.\main.c      **** * the complete application which includes BLE processing, temperature 
  67:.\main.c      **** * measurement and power mode transitions.
  68:.\main.c      **** *
  69:.\main.c      **** * Side Effects:
  70:.\main.c      **** * None
  71:.\main.c      **** *
  72:.\main.c      **** * Note:
  73:.\main.c      **** *
  74:.\main.c      **** *****************************************************************************/
  75:.\main.c      **** int main()
  76:.\main.c      **** {
  26              		.loc 1 76 0
  27              		.cfi_startproc
  28 0000 90B5     		push	{r4, r7, lr}
  29              		.cfi_def_cfa_offset 12
  30              		.cfi_offset 4, -12
  31              		.cfi_offset 7, -8
  32              		.cfi_offset 14, -4
  33 0002 83B0     		sub	sp, sp, #12
  34              		.cfi_def_cfa_offset 24
  35 0004 00AF     		add	r7, sp, #0
  36              		.cfi_def_cfa_register 7
  77:.\main.c      ****     /* Powerstate indicators of BLESS */
  78:.\main.c      ****     CYBLE_LP_MODE_T lpMode = CYBLE_BLESS_DEEPSLEEP;
ARM GAS  C:\Users\Yobely\AppData\Local\Temp\ccU5OWyg.s 			page 3


  37              		.loc 1 78 0
  38 0006 FB1D     		add	r3, r7, #7
  39 0008 0322     		mov	r2, #3
  40 000a 1A70     		strb	r2, [r3]
  79:.\main.c      ****     CYBLE_BLESS_STATE_T blessState = CYBLE_BLESS_STATE_DEEPSLEEP;
  41              		.loc 1 79 0
  42 000c BB1D     		add	r3, r7, #6
  43 000e 0622     		mov	r2, #6
  44 0010 1A70     		strb	r2, [r3]
  80:.\main.c      ****     
  81:.\main.c      ****     /* Local variable used to store temperature information */
  82:.\main.c      ****     uint32 temperature;
  83:.\main.c      ****     
  84:.\main.c      ****     /* Enable global interrupt, required for BLESS operation */
  85:.\main.c      ****     CyGlobalIntEnable; 
  45              		.loc 1 85 0
  46              	@ 85 ".\main.c" 1
  47 0012 62B6     		CPSIE   i
  48              	@ 0 "" 2
  86:.\main.c      ****     
  87:.\main.c      ****     /* Initialize the complete system */
  88:.\main.c      ****     InitializeSystem();
  49              		.loc 1 88 0
  50              		.code	16
  51 0014 FFF7FEFF 		bl	InitializeSystem
  52              	.L9:
  89:.\main.c      ****     
  90:.\main.c      ****     /* Infinite loop */
  91:.\main.c      ****     for(;;)
  92:.\main.c      ****     {
  93:.\main.c      ****         /* Process all pending BLE events in the stack */
  94:.\main.c      ****         CyBle_ProcessEvents();
  53              		.loc 1 94 0
  54 0018 FFF7FEFF 		bl	CyBle_ProcessEvents
  95:.\main.c      ****         
  96:.\main.c      ****         /***********************************************************************
  97:.\main.c      ****         * Wait for connection established with Central device
  98:.\main.c      ****         ***********************************************************************/
  99:.\main.c      ****         if(CyBle_GetState() == CYBLE_STATE_CONNECTED)
  55              		.loc 1 99 0
  56 001c 2A4B     		ldr	r3, .L10
  57 001e 1B78     		ldrb	r3, [r3]
  58 0020 022B     		cmp	r3, #2
  59 0022 18D1     		bne	.L2
 100:.\main.c      ****         {
 101:.\main.c      ****             /* Process all pending BLE events in the stack */
 102:.\main.c      ****             CyBle_ProcessEvents();
  60              		.loc 1 102 0
  61 0024 FFF7FEFF 		bl	CyBle_ProcessEvents
 103:.\main.c      ****             /* Periodically measure temperature and send results to the Client */
 104:.\main.c      ****             if(SystemFlag & WAKEUP_SOURCE_WDT)
  62              		.loc 1 104 0
  63 0028 284B     		ldr	r3, .L10+4
  64 002a 1A68     		ldr	r2, [r3]
  65 002c 0123     		mov	r3, #1
  66 002e 1340     		and	r3, r2
  67 0030 11D0     		beq	.L2
ARM GAS  C:\Users\Yobely\AppData\Local\Temp\ccU5OWyg.s 			page 4


 105:.\main.c      ****             {
 106:.\main.c      ****                 /* Clear WDT wakeup source flag */
 107:.\main.c      ****                 SystemFlag &= ~WAKEUP_SOURCE_WDT;
  68              		.loc 1 107 0
  69 0032 264B     		ldr	r3, .L10+4
  70 0034 1B68     		ldr	r3, [r3]
  71 0036 0122     		mov	r2, #1
  72 0038 191C     		mov	r1, r3
  73 003a 9143     		bic	r1, r2
  74 003c 0A1C     		mov	r2, r1
  75 003e 234B     		ldr	r3, .L10+4
  76 0040 1A60     		str	r2, [r3]
 108:.\main.c      ****                 /* Wakeup the system from deep sleep */
 109:.\main.c      ****                 WakeupFromDeepSleep();
  77              		.loc 1 109 0
  78 0042 FFF7FEFF 		bl	WakeupFromDeepSleep
 110:.\main.c      ****                 /* Measure temperature */
 111:.\main.c      ****                 temperature = ProcessTemperature();
  79              		.loc 1 111 0
  80 0046 FFF7FEFF 		bl	ProcessTemperature
  81 004a 031C     		mov	r3, r0
  82 004c 3B60     		str	r3, [r7]
 112:.\main.c      ****                 /* Send temperature information over BLE */
 113:.\main.c      ****                 ProcessBLE(temperature);
  83              		.loc 1 113 0
  84 004e 3B68     		ldr	r3, [r7]
  85 0050 181C     		mov	r0, r3
  86 0052 FFF7FEFF 		bl	ProcessBLE
  87              	.L2:
 114:.\main.c      ****             }
 115:.\main.c      ****         }
 116:.\main.c      ****         
 117:.\main.c      ****         /* If BLE is successfully initialized, then execute the low power routine */
 118:.\main.c      ****         if(CyBle_GetState() != CYBLE_STATE_INITIALIZING)
  88              		.loc 1 118 0
  89 0056 1C4B     		ldr	r3, .L10
  90 0058 1B78     		ldrb	r3, [r3]
  91 005a 012B     		cmp	r3, #1
  92 005c 29D0     		beq	.L3
 119:.\main.c      ****         {
 120:.\main.c      ****             /* Disable all hardware blocks */
 121:.\main.c      ****             PrepareForDeepSleep();
  93              		.loc 1 121 0
  94 005e FFF7FEFF 		bl	PrepareForDeepSleep
 122:.\main.c      ****             /* Enter Deep Sleep mode between connection intervals */
 123:.\main.c      ****             lpMode = CyBle_EnterLPM(CYBLE_BLESS_DEEPSLEEP);
  95              		.loc 1 123 0
  96 0062 FC1D     		add	r4, r7, #7
  97 0064 0320     		mov	r0, #3
  98 0066 FFF7FEFF 		bl	CyBle_EnterLPM
  99 006a 031C     		mov	r3, r0
 100 006c 2370     		strb	r3, [r4]
 124:.\main.c      ****             
 125:.\main.c      ****             /* Disable global interrupts to avoid race condition */
 126:.\main.c      ****             CyGlobalIntDisable;
 101              		.loc 1 126 0
 102              	@ 126 ".\main.c" 1
ARM GAS  C:\Users\Yobely\AppData\Local\Temp\ccU5OWyg.s 			page 5


 103 006e 72B6     		CPSID   i
 104              	@ 0 "" 2
 127:.\main.c      ****             blessState = CyBle_GetBleSsState();
 105              		.loc 1 127 0
 106              		.code	16
 107 0070 BC1D     		add	r4, r7, #6
 108 0072 FFF7FEFF 		bl	CyBle_GetBleSsState
 109 0076 031C     		mov	r3, r0
 110 0078 2370     		strb	r3, [r4]
 128:.\main.c      **** 
 129:.\main.c      ****             /* Try putting system in DeepSleep mode if BLESS succesfully entered Deep Sleep mode*/
 130:.\main.c      ****             if(lpMode == CYBLE_BLESS_DEEPSLEEP) 
 111              		.loc 1 130 0
 112 007a FB1D     		add	r3, r7, #7
 113 007c 1B78     		ldrb	r3, [r3]
 114 007e 032B     		cmp	r3, #3
 115 0080 0AD1     		bne	.L4
 131:.\main.c      ****             {   
 132:.\main.c      ****                 /* If BLESS is in Deep Sleep or is in the process of waking up from Deep Sleep,
 133:.\main.c      ****                  * put system in Deep Sleep mode */
 134:.\main.c      ****                 if(blessState == CYBLE_BLESS_STATE_ECO_ON || blessState == CYBLE_BLESS_STATE_DEEPSL
 116              		.loc 1 134 0
 117 0082 BB1D     		add	r3, r7, #6
 118 0084 1B78     		ldrb	r3, [r3]
 119 0086 042B     		cmp	r3, #4
 120 0088 03D0     		beq	.L5
 121              		.loc 1 134 0 is_stmt 0 discriminator 1
 122 008a BB1D     		add	r3, r7, #6
 123 008c 1B78     		ldrb	r3, [r3]
 124 008e 062B     		cmp	r3, #6
 125 0090 0ED1     		bne	.L7
 126              	.L5:
 135:.\main.c      ****                 {
 136:.\main.c      ****                     CySysPmDeepSleep();
 127              		.loc 1 136 0 is_stmt 1
 128 0092 FFF7FEFF 		bl	CySysPmDeepSleep
 129 0096 0BE0     		b	.L7
 130              	.L4:
 137:.\main.c      ****                 }
 138:.\main.c      ****             }
 139:.\main.c      ****             /* If BLESS is in Active state */
 140:.\main.c      ****             else
 141:.\main.c      ****             {
 142:.\main.c      ****                 /* If BLESS Tx/Rx Event is not complete, reduce IMO and put CPU to Sleep */
 143:.\main.c      ****                 if(blessState != CYBLE_BLESS_STATE_EVENT_CLOSE)
 131              		.loc 1 143 0
 132 0098 BB1D     		add	r3, r7, #6
 133 009a 1B78     		ldrb	r3, [r3]
 134 009c 022B     		cmp	r3, #2
 135 009e 07D0     		beq	.L7
 144:.\main.c      ****                 {
 145:.\main.c      ****                     CySysClkWriteImoFreq(IMO_FREQUENCY_3MHZ);
 136              		.loc 1 145 0
 137 00a0 0320     		mov	r0, #3
 138 00a2 FFF7FEFF 		bl	CySysClkWriteImoFreq
 146:.\main.c      ****                     CySysPmSleep();
 139              		.loc 1 146 0
ARM GAS  C:\Users\Yobely\AppData\Local\Temp\ccU5OWyg.s 			page 6


 140 00a6 FFF7FEFF 		bl	CySysPmSleep
 147:.\main.c      ****                     CySysClkWriteImoFreq(IMO_FREQUENCY_12MHZ);
 141              		.loc 1 147 0
 142 00aa 0C20     		mov	r0, #12
 143 00ac FFF7FEFF 		bl	CySysClkWriteImoFreq
 144              	.L7:
 148:.\main.c      ****                 }
 149:.\main.c      ****             }
 150:.\main.c      ****             /* Enable interrupts for normal operation */
 151:.\main.c      ****             CyGlobalIntEnable;
 145              		.loc 1 151 0
 146              	@ 151 ".\main.c" 1
 147 00b0 62B6     		CPSIE   i
 148              	@ 0 "" 2
 149              		.code	16
 150              	.L3:
 152:.\main.c      ****         }
 153:.\main.c      ****         
 154:.\main.c      ****         /* If Hibernate is enabled then put system in hibernate state */
 155:.\main.c      ****         if(SystemFlag & ENABLE_HIBERNATE)
 151              		.loc 1 155 0
 152 00b2 064B     		ldr	r3, .L10+4
 153 00b4 1A68     		ldr	r2, [r3]
 154 00b6 0823     		mov	r3, #8
 155 00b8 1340     		and	r3, r2
 156 00ba 04D0     		beq	.L8
 156:.\main.c      ****         {
 157:.\main.c      ****             /* Enable ISR for the pin to wakeup the device from hibernate */
 158:.\main.c      ****             Wakeup_ISR_Start();
 157              		.loc 1 158 0
 158 00bc FFF7FEFF 		bl	Wakeup_ISR_Start
 159:.\main.c      ****             
 160:.\main.c      ****             /* Put sytem to hibernate */
 161:.\main.c      ****             CySysPmHibernate();
 159              		.loc 1 161 0
 160 00c0 FFF7FEFF 		bl	CySysPmHibernate
 162:.\main.c      ****         }
 163:.\main.c      ****     }
 161              		.loc 1 163 0
 162 00c4 A8E7     		b	.L9
 163              	.L8:
 164 00c6 A7E7     		b	.L9
 165              	.L11:
 166              		.align	2
 167              	.L10:
 168 00c8 00000000 		.word	cyBle_state
 169 00cc 00000000 		.word	SystemFlag
 170              		.cfi_endproc
 171              	.LFE35:
 172              		.size	main, .-main
 173              		.text
 174              	.Letext0:
 175              		.file 2 ".\\Generated_Source\\PSoC4/cytypes.h"
 176              		.file 3 ".\\Generated_Source\\PSoC4/BLE_Stack.h"
 177              		.file 4 ".\\Generated_Source\\PSoC4/BLE_eventHandler.h"
 178              		.file 5 ".\\CommonFunctions.h"