ARM GAS  C:\Users\Yobely\AppData\Local\Temp\ccpau5rb.s 			page 1


   1              		.cpu cortex-m0
   2              		.fpu softvfp
   3              		.eabi_attribute 20, 1
   4              		.eabi_attribute 21, 1
   5              		.eabi_attribute 23, 3
   6              		.eabi_attribute 24, 1
   7              		.eabi_attribute 25, 1
   8              		.eabi_attribute 26, 1
   9              		.eabi_attribute 30, 6
  10              		.eabi_attribute 34, 0
  11              		.eabi_attribute 18, 4
  12              		.code	16
  13              		.file	"WatchdogTimer.c"
  14              		.text
  15              	.Ltext0:
  16              		.cfi_sections	.debug_frame
  17              		.data
  18              		.align	2
  19              		.type	watchdogPeriodMs, %object
  20              		.size	watchdogPeriodMs, 4
  21              	watchdogPeriodMs:
  22 0000 14000000 		.word	20
  23              		.align	2
  24              		.type	nextTicks, %object
  25              		.size	nextTicks, 4
  26              	nextTicks:
  27 0004 80020000 		.word	640
  28              		.section	.text.WatchdogTimer_Lock,"ax",%progbits
  29              		.align	2
  30              		.code	16
  31              		.thumb_func
  32              		.type	WatchdogTimer_Lock, %function
  33              	WatchdogTimer_Lock:
  34              	.LFB35:
  35              		.file 1 ".\\WatchdogTimer.c"
   1:.\WatchdogTimer.c **** /*****************************************************************************
   2:.\WatchdogTimer.c **** * File Name: WatchdogTimer.c
   3:.\WatchdogTimer.c **** *
   4:.\WatchdogTimer.c **** * Version: 1.0
   5:.\WatchdogTimer.c **** *
   6:.\WatchdogTimer.c **** * Description:
   7:.\WatchdogTimer.c **** * This file implements the watchdog timer for a deep-sleep wakeup source, 
   8:.\WatchdogTimer.c **** * and also to keep the timestamp.
   9:.\WatchdogTimer.c **** *
  10:.\WatchdogTimer.c **** * Note:
  11:.\WatchdogTimer.c **** * 
  12:.\WatchdogTimer.c **** * Owner:
  13:.\WatchdogTimer.c **** * PMAD
  14:.\WatchdogTimer.c **** *
  15:.\WatchdogTimer.c **** ******************************************************************************
  16:.\WatchdogTimer.c **** * Copyright (2014), Cypress Semiconductor Corporation.
  17:.\WatchdogTimer.c **** ******************************************************************************
  18:.\WatchdogTimer.c **** * This software is owned by Cypress Semiconductor Corporation (Cypress) and is
  19:.\WatchdogTimer.c **** * protected by and subject to worldwide patent protection (United States and
  20:.\WatchdogTimer.c **** * foreign), United States copyright laws and international treaty provisions.
  21:.\WatchdogTimer.c **** * Cypress hereby grants to licensee a personal, non-exclusive, non-transferable
  22:.\WatchdogTimer.c **** * license to copy, use, modify, create derivative works of, and compile the
ARM GAS  C:\Users\Yobely\AppData\Local\Temp\ccpau5rb.s 			page 2


  23:.\WatchdogTimer.c **** * Cypress Source Code and derivative works for the sole purpose of creating
  24:.\WatchdogTimer.c **** * custom software in support of licensee product to be used only in conjunction
  25:.\WatchdogTimer.c **** * with a Cypress integrated circuit as specified in the applicable agreement.
  26:.\WatchdogTimer.c **** * Any reproduction, modification, translation, compilation, or representation of
  27:.\WatchdogTimer.c **** * this software except as specified above is prohibited without the express
  28:.\WatchdogTimer.c **** * written permission of Cypress.
  29:.\WatchdogTimer.c **** *
  30:.\WatchdogTimer.c **** * Disclaimer: CYPRESS MAKES NO WARRANTY OF ANY KIND, EXPRESS OR IMPLIED, WITH
  31:.\WatchdogTimer.c **** * REGARD TO THIS MATERIAL, INCLUDING, BUT NOT LIMITED TO, THE IMPLIED
  32:.\WatchdogTimer.c **** * WARRANTIES OF MERCHANTABILITY AND FITNESS FOR A PARTICULAR PURPOSE.
  33:.\WatchdogTimer.c **** * Cypress reserves the right to make changes without further notice to the
  34:.\WatchdogTimer.c **** * materials described herein. Cypress does not assume any liability arising out
  35:.\WatchdogTimer.c **** * of the application or use of any product or circuit described herein. Cypress
  36:.\WatchdogTimer.c **** * does not authorize its products for use as critical components in life-support
  37:.\WatchdogTimer.c **** * systems where a malfunction or failure may reasonably be expected to result in
  38:.\WatchdogTimer.c **** * significant injury to the user. The inclusion of Cypress' product in a life-
  39:.\WatchdogTimer.c **** * support systems application implies that the manufacturer assumes all risk of
  40:.\WatchdogTimer.c **** * such use and in doing so indemnifies Cypress against all charges. Use may be
  41:.\WatchdogTimer.c **** * limited by and subject to the applicable Cypress software license agreement.
  42:.\WatchdogTimer.c **** *****************************************************************************/
  43:.\WatchdogTimer.c **** 
  44:.\WatchdogTimer.c **** 
  45:.\WatchdogTimer.c **** /*****************************************************************************
  46:.\WatchdogTimer.c **** * Included headers
  47:.\WatchdogTimer.c **** *****************************************************************************/
  48:.\WatchdogTimer.c **** #include "CommonFunctions.h"
  49:.\WatchdogTimer.c **** #include "BLE_HTSS.h"
  50:.\WatchdogTimer.c **** 
  51:.\WatchdogTimer.c **** /*****************************************************************************
  52:.\WatchdogTimer.c **** * Macros and constants
  53:.\WatchdogTimer.c **** *****************************************************************************/
  54:.\WatchdogTimer.c **** #define WDT_INTERRUPT_NUM           (8)
  55:.\WatchdogTimer.c **** #define WATCHDOG_DEFAULT_PERIOD_MS  (20)
  56:.\WatchdogTimer.c **** #define WATCHDOG_TICKS_PER_MS       (32)
  57:.\WatchdogTimer.c **** #define CLK_ILO_CONFIG_ILO_ENABLE   (1u << 31)
  58:.\WatchdogTimer.c **** #define WDT_CONFIG_WDT_MODE0_INT    (1u << 0)    
  59:.\WatchdogTimer.c **** #define WDT_CONTROL_WDT_ENABLE0     (1u << 0)
  60:.\WatchdogTimer.c **** #define WDT_CONTROL_WDT_ENABLED0    (1u << 1)
  61:.\WatchdogTimer.c **** #define WDT_CONTROL_WDT_INT0        (1u << 2)
  62:.\WatchdogTimer.c **** #define CLK_SELECT_WDT_LOCK_SET01   ((1u << 14) | (1u << 15))
  63:.\WatchdogTimer.c **** #define CLK_SELECT_WDT_LOCK_CLR0    (1u << 14)
  64:.\WatchdogTimer.c **** #define CLK_SELECT_WDT_LOCK_CLR1    (1u << 15)
  65:.\WatchdogTimer.c **** #define UPDATE_WDT_MATCH(value)     CY_SET_REG32(CYREG_WDT_MATCH, \
  66:.\WatchdogTimer.c ****                                     (CY_GET_REG32(CYREG_WDT_MATCH) & 0xFFFF0000) + (uint16)value)
  67:.\WatchdogTimer.c **** 
  68:.\WatchdogTimer.c **** 
  69:.\WatchdogTimer.c **** /*****************************************************************************
  70:.\WatchdogTimer.c **** * Global variables
  71:.\WatchdogTimer.c **** *****************************************************************************/
  72:.\WatchdogTimer.c **** volatile static uint32 watchdogPeriodMs = WATCHDOG_DEFAULT_PERIOD_MS;
  73:.\WatchdogTimer.c **** volatile static uint32 nextTicks = WATCHDOG_DEFAULT_PERIOD_MS * WATCHDOG_TICKS_PER_MS;
  74:.\WatchdogTimer.c **** 
  75:.\WatchdogTimer.c **** /*****************************************************************************
  76:.\WatchdogTimer.c **** * Function Definitions
  77:.\WatchdogTimer.c **** *****************************************************************************/
  78:.\WatchdogTimer.c **** 
  79:.\WatchdogTimer.c **** /*****************************************************************************
ARM GAS  C:\Users\Yobely\AppData\Local\Temp\ccpau5rb.s 			page 3


  80:.\WatchdogTimer.c **** * Static Functions
  81:.\WatchdogTimer.c **** *****************************************************************************/
  82:.\WatchdogTimer.c **** 
  83:.\WatchdogTimer.c **** /*****************************************************************************
  84:.\WatchdogTimer.c **** * Function Name: WatchdogTimer_Lock()
  85:.\WatchdogTimer.c **** ******************************************************************************
  86:.\WatchdogTimer.c **** * Summary:
  87:.\WatchdogTimer.c **** * Locks the watchdog timer to prevent configuration changes.
  88:.\WatchdogTimer.c **** *
  89:.\WatchdogTimer.c **** * Parameters:
  90:.\WatchdogTimer.c **** * None
  91:.\WatchdogTimer.c **** *
  92:.\WatchdogTimer.c **** * Return:
  93:.\WatchdogTimer.c **** * None
  94:.\WatchdogTimer.c **** *
  95:.\WatchdogTimer.c **** * Theory:
  96:.\WatchdogTimer.c **** * The CLK_SELECT register is written to, such that watchdog timer is now 
  97:.\WatchdogTimer.c **** * locked. Any further changes to watchdog timer registers are then ignored.
  98:.\WatchdogTimer.c **** *
  99:.\WatchdogTimer.c **** * Side Effects:
 100:.\WatchdogTimer.c **** * None
 101:.\WatchdogTimer.c **** *
 102:.\WatchdogTimer.c **** * Note:
 103:.\WatchdogTimer.c **** *
 104:.\WatchdogTimer.c **** *****************************************************************************/
 105:.\WatchdogTimer.c **** static void WatchdogTimer_Lock(void)
 106:.\WatchdogTimer.c **** {
  36              		.loc 1 106 0
  37              		.cfi_startproc
  38 0000 80B5     		push	{r7, lr}
  39              		.cfi_def_cfa_offset 8
  40              		.cfi_offset 7, -8
  41              		.cfi_offset 14, -4
  42 0002 82B0     		sub	sp, sp, #8
  43              		.cfi_def_cfa_offset 16
  44 0004 00AF     		add	r7, sp, #0
  45              		.cfi_def_cfa_register 7
 107:.\WatchdogTimer.c ****     uint32 ClkSelectValue;
 108:.\WatchdogTimer.c **** 
 109:.\WatchdogTimer.c ****     /* Update CLK_SELECT register to lock watchdog timer */
 110:.\WatchdogTimer.c ****     ClkSelectValue = CY_GET_REG32(CYREG_CLK_SELECT) | CLK_SELECT_WDT_LOCK_SET01;
  46              		.loc 1 110 0
  47 0006 064B     		ldr	r3, .L2
  48 0008 1B68     		ldr	r3, [r3]
  49 000a C022     		mov	r2, #192
  50 000c 1202     		lsl	r2, r2, #8
  51 000e 1343     		orr	r3, r2
  52 0010 7B60     		str	r3, [r7, #4]
 111:.\WatchdogTimer.c ****     CY_SET_REG32(CYREG_CLK_SELECT, ClkSelectValue);
  53              		.loc 1 111 0
  54 0012 034B     		ldr	r3, .L2
  55 0014 7A68     		ldr	r2, [r7, #4]
  56 0016 1A60     		str	r2, [r3]
 112:.\WatchdogTimer.c **** }
  57              		.loc 1 112 0
  58 0018 BD46     		mov	sp, r7
  59 001a 02B0     		add	sp, sp, #8
ARM GAS  C:\Users\Yobely\AppData\Local\Temp\ccpau5rb.s 			page 4


  60              		@ sp needed
  61 001c 80BD     		pop	{r7, pc}
  62              	.L3:
  63 001e C046     		.align	2
  64              	.L2:
  65 0020 00010B40 		.word	1074462976
  66              		.cfi_endproc
  67              	.LFE35:
  68              		.size	WatchdogTimer_Lock, .-WatchdogTimer_Lock
  69              		.section	.text.WatchdogTimer_Unlock,"ax",%progbits
  70              		.align	2
  71              		.code	16
  72              		.thumb_func
  73              		.type	WatchdogTimer_Unlock, %function
  74              	WatchdogTimer_Unlock:
  75              	.LFB36:
 113:.\WatchdogTimer.c **** 
 114:.\WatchdogTimer.c **** 
 115:.\WatchdogTimer.c **** /*****************************************************************************
 116:.\WatchdogTimer.c **** * Function Name: WatchdogTimer_Unlock()
 117:.\WatchdogTimer.c **** ******************************************************************************
 118:.\WatchdogTimer.c **** * Summary:
 119:.\WatchdogTimer.c **** * Unlocks the watchdog timer to allow configuration changes.
 120:.\WatchdogTimer.c **** *
 121:.\WatchdogTimer.c **** * Parameters:
 122:.\WatchdogTimer.c **** * None
 123:.\WatchdogTimer.c **** *
 124:.\WatchdogTimer.c **** * Return:
 125:.\WatchdogTimer.c **** * None
 126:.\WatchdogTimer.c **** *
 127:.\WatchdogTimer.c **** * Theory:
 128:.\WatchdogTimer.c **** * The CLK_SELECT register is written to, such that watchdog timer is now 
 129:.\WatchdogTimer.c **** * unlocked. The watchdog timer registers can then be modified.
 130:.\WatchdogTimer.c **** *
 131:.\WatchdogTimer.c **** * Side Effects:
 132:.\WatchdogTimer.c **** * None
 133:.\WatchdogTimer.c **** *
 134:.\WatchdogTimer.c **** * Note:
 135:.\WatchdogTimer.c **** *
 136:.\WatchdogTimer.c **** *****************************************************************************/
 137:.\WatchdogTimer.c **** static void WatchdogTimer_Unlock(void)
 138:.\WatchdogTimer.c **** {
  76              		.loc 1 138 0
  77              		.cfi_startproc
  78 0000 80B5     		push	{r7, lr}
  79              		.cfi_def_cfa_offset 8
  80              		.cfi_offset 7, -8
  81              		.cfi_offset 14, -4
  82 0002 82B0     		sub	sp, sp, #8
  83              		.cfi_def_cfa_offset 16
  84 0004 00AF     		add	r7, sp, #0
  85              		.cfi_def_cfa_register 7
 139:.\WatchdogTimer.c ****     uint32 ClkSelectValue;
 140:.\WatchdogTimer.c **** 
 141:.\WatchdogTimer.c ****     /* Update CLK_SELECT register to unlock watchdog timer */
 142:.\WatchdogTimer.c ****     ClkSelectValue = CY_GET_REG32(CYREG_CLK_SELECT) & ~CLK_SELECT_WDT_LOCK_SET01;
  86              		.loc 1 142 0
ARM GAS  C:\Users\Yobely\AppData\Local\Temp\ccpau5rb.s 			page 5


  87 0006 0A4B     		ldr	r3, .L5
  88 0008 1A68     		ldr	r2, [r3]
  89 000a 0A4B     		ldr	r3, .L5+4
  90 000c 1340     		and	r3, r2
  91 000e 7B60     		str	r3, [r7, #4]
 143:.\WatchdogTimer.c ****     CY_SET_REG32(CYREG_CLK_SELECT, ClkSelectValue | CLK_SELECT_WDT_LOCK_CLR0);
  92              		.loc 1 143 0
  93 0010 074B     		ldr	r3, .L5
  94 0012 7A68     		ldr	r2, [r7, #4]
  95 0014 8021     		mov	r1, #128
  96 0016 C901     		lsl	r1, r1, #7
  97 0018 0A43     		orr	r2, r1
  98 001a 1A60     		str	r2, [r3]
 144:.\WatchdogTimer.c ****     CY_SET_REG32(CYREG_CLK_SELECT, ClkSelectValue | CLK_SELECT_WDT_LOCK_CLR1);
  99              		.loc 1 144 0
 100 001c 044B     		ldr	r3, .L5
 101 001e 7A68     		ldr	r2, [r7, #4]
 102 0020 8021     		mov	r1, #128
 103 0022 0902     		lsl	r1, r1, #8
 104 0024 0A43     		orr	r2, r1
 105 0026 1A60     		str	r2, [r3]
 145:.\WatchdogTimer.c **** }
 106              		.loc 1 145 0
 107 0028 BD46     		mov	sp, r7
 108 002a 02B0     		add	sp, sp, #8
 109              		@ sp needed
 110 002c 80BD     		pop	{r7, pc}
 111              	.L6:
 112 002e C046     		.align	2
 113              	.L5:
 114 0030 00010B40 		.word	1074462976
 115 0034 FF3FFFFF 		.word	-49153
 116              		.cfi_endproc
 117              	.LFE36:
 118              		.size	WatchdogTimer_Unlock, .-WatchdogTimer_Unlock
 119              		.section	.text.WatchdogTimer_Isr,"ax",%progbits
 120              		.align	2
 121              		.global	WatchdogTimer_Isr
 122              		.code	16
 123              		.thumb_func
 124              		.type	WatchdogTimer_Isr, %function
 125              	WatchdogTimer_Isr:
 126              	.LFB37:
 146:.\WatchdogTimer.c **** 
 147:.\WatchdogTimer.c **** 
 148:.\WatchdogTimer.c **** /*****************************************************************************
 149:.\WatchdogTimer.c **** * Public Functions
 150:.\WatchdogTimer.c **** *****************************************************************************/
 151:.\WatchdogTimer.c **** 
 152:.\WatchdogTimer.c **** /*****************************************************************************
 153:.\WatchdogTimer.c **** * Function Name: WatchdogTimer_Isr()
 154:.\WatchdogTimer.c **** ******************************************************************************
 155:.\WatchdogTimer.c **** * Summary:
 156:.\WatchdogTimer.c **** * The ISR for the watchdog timer. 
 157:.\WatchdogTimer.c **** *
 158:.\WatchdogTimer.c **** * Parameters:
 159:.\WatchdogTimer.c **** * None
ARM GAS  C:\Users\Yobely\AppData\Local\Temp\ccpau5rb.s 			page 6


 160:.\WatchdogTimer.c **** *
 161:.\WatchdogTimer.c **** * Return:
 162:.\WatchdogTimer.c **** * None
 163:.\WatchdogTimer.c **** *
 164:.\WatchdogTimer.c **** * Theory:
 165:.\WatchdogTimer.c **** * The ISR checks if the WDT interrupt source is timer 0. If yes, then it 
 166:.\WatchdogTimer.c **** * updates the WDT_MATCH register to prepare for the next interrupt and
 167:.\WatchdogTimer.c **** * updates the flags for measurement interval. 
 168:.\WatchdogTimer.c **** *
 169:.\WatchdogTimer.c **** * Side Effects:
 170:.\WatchdogTimer.c **** * None
 171:.\WatchdogTimer.c **** *
 172:.\WatchdogTimer.c **** * Note:
 173:.\WatchdogTimer.c **** *
 174:.\WatchdogTimer.c **** *****************************************************************************/
 175:.\WatchdogTimer.c **** CY_ISR(WatchdogTimer_Isr)
 176:.\WatchdogTimer.c **** {
 127              		.loc 1 176 0
 128              		.cfi_startproc
 129 0000 80B5     		push	{r7, lr}
 130              		.cfi_def_cfa_offset 8
 131              		.cfi_offset 7, -8
 132              		.cfi_offset 14, -4
 133 0002 00AF     		add	r7, sp, #0
 134              		.cfi_def_cfa_register 7
 177:.\WatchdogTimer.c ****     /* Initializes the interval timer with default measurement interval */
 178:.\WatchdogTimer.c ****     static uint32 intervalTimer = DEFAULT_MEASUREMENT_INTERVAL;
 179:.\WatchdogTimer.c ****     
 180:.\WatchdogTimer.c ****     /* Unlock watchdog timer to enable configuration changes*/
 181:.\WatchdogTimer.c ****     WatchdogTimer_Unlock();
 135              		.loc 1 181 0
 136 0004 FFF7FEFF 		bl	WatchdogTimer_Unlock
 182:.\WatchdogTimer.c **** 
 183:.\WatchdogTimer.c ****     /* Update WDT match register for next interrupt */
 184:.\WatchdogTimer.c ****     UPDATE_WDT_MATCH((uint16)(CY_GET_REG32(CYREG_WDT_MATCH) + nextTicks));
 137              		.loc 1 184 0
 138 0008 184B     		ldr	r3, .L9
 139 000a 184A     		ldr	r2, .L9
 140 000c 1268     		ldr	r2, [r2]
 141 000e 120C     		lsr	r2, r2, #16
 142 0010 1104     		lsl	r1, r2, #16
 143 0012 164A     		ldr	r2, .L9
 144 0014 1268     		ldr	r2, [r2]
 145 0016 90B2     		uxth	r0, r2
 146 0018 154A     		ldr	r2, .L9+4
 147 001a 1268     		ldr	r2, [r2]
 148 001c 92B2     		uxth	r2, r2
 149 001e 8218     		add	r2, r0, r2
 150 0020 92B2     		uxth	r2, r2
 151 0022 8A18     		add	r2, r1, r2
 152 0024 1A60     		str	r2, [r3]
 185:.\WatchdogTimer.c ****     
 186:.\WatchdogTimer.c ****     /* Clear WDT pending interrupt */
 187:.\WatchdogTimer.c ****     CY_SET_REG32(CYREG_WDT_CONTROL, CY_GET_REG32(CYREG_WDT_CONTROL) | WDT_CONTROL_WDT_INT0);
 153              		.loc 1 187 0
 154 0026 134B     		ldr	r3, .L9+8
 155 0028 124A     		ldr	r2, .L9+8
ARM GAS  C:\Users\Yobely\AppData\Local\Temp\ccpau5rb.s 			page 7


 156 002a 1268     		ldr	r2, [r2]
 157 002c 0421     		mov	r1, #4
 158 002e 0A43     		orr	r2, r1
 159 0030 1A60     		str	r2, [r3]
 188:.\WatchdogTimer.c **** 
 189:.\WatchdogTimer.c ****     /* Lock watchdog timer to prevent configuration changes */
 190:.\WatchdogTimer.c ****     WatchdogTimer_Lock();
 160              		.loc 1 190 0
 161 0032 FFF7FEFF 		bl	WatchdogTimer_Lock
 191:.\WatchdogTimer.c ****     
 192:.\WatchdogTimer.c ****     /* Decrement interval timer */
 193:.\WatchdogTimer.c ****     intervalTimer--;    
 162              		.loc 1 193 0
 163 0036 104B     		ldr	r3, .L9+12
 164 0038 1B68     		ldr	r3, [r3]
 165 003a 5A1E     		sub	r2, r3, #1
 166 003c 0E4B     		ldr	r3, .L9+12
 167 003e 1A60     		str	r2, [r3]
 194:.\WatchdogTimer.c ****     
 195:.\WatchdogTimer.c ****     /* If interval timer has elapsed then enable MEASUREMENT_INTERVAL flag */
 196:.\WatchdogTimer.c ****     if(intervalTimer == 0)
 168              		.loc 1 196 0
 169 0040 0D4B     		ldr	r3, .L9+12
 170 0042 1B68     		ldr	r3, [r3]
 171 0044 002B     		cmp	r3, #0
 172 0046 09D1     		bne	.L8
 197:.\WatchdogTimer.c ****     {
 198:.\WatchdogTimer.c ****         /* Initialize interval timer and set MEASUREMENT_INTERVAL flag */
 199:.\WatchdogTimer.c ****         intervalTimer = htssInterval;
 173              		.loc 1 199 0
 174 0048 0C4B     		ldr	r3, .L9+16
 175 004a 1A68     		ldr	r2, [r3]
 176 004c 0A4B     		ldr	r3, .L9+12
 177 004e 1A60     		str	r2, [r3]
 200:.\WatchdogTimer.c ****         SystemFlag |= MEASUREMENT_INTERVAL;
 178              		.loc 1 200 0
 179 0050 0B4B     		ldr	r3, .L9+20
 180 0052 1B68     		ldr	r3, [r3]
 181 0054 0222     		mov	r2, #2
 182 0056 1A43     		orr	r2, r3
 183 0058 094B     		ldr	r3, .L9+20
 184 005a 1A60     		str	r2, [r3]
 185              	.L8:
 201:.\WatchdogTimer.c ****     }
 202:.\WatchdogTimer.c ****     
 203:.\WatchdogTimer.c ****     /* Set WDT flag for application processing */
 204:.\WatchdogTimer.c ****     SystemFlag |= WAKEUP_SOURCE_WDT;        
 186              		.loc 1 204 0
 187 005c 084B     		ldr	r3, .L9+20
 188 005e 1B68     		ldr	r3, [r3]
 189 0060 0122     		mov	r2, #1
 190 0062 1A43     		orr	r2, r3
 191 0064 064B     		ldr	r3, .L9+20
 192 0066 1A60     		str	r2, [r3]
 205:.\WatchdogTimer.c **** }
 193              		.loc 1 205 0
 194 0068 BD46     		mov	sp, r7
ARM GAS  C:\Users\Yobely\AppData\Local\Temp\ccpau5rb.s 			page 8


 195              		@ sp needed
 196 006a 80BD     		pop	{r7, pc}
 197              	.L10:
 198              		.align	2
 199              	.L9:
 200 006c 08020B40 		.word	1074463240
 201 0070 04000000 		.word	nextTicks
 202 0074 10020B40 		.word	1074463248
 203 0078 08000000 		.word	intervalTimer.6483
 204 007c 00000000 		.word	htssInterval
 205 0080 00000000 		.word	SystemFlag
 206              		.cfi_endproc
 207              	.LFE37:
 208              		.size	WatchdogTimer_Isr, .-WatchdogTimer_Isr
 209              		.section	.text.WatchdogTimer_Start,"ax",%progbits
 210              		.align	2
 211              		.global	WatchdogTimer_Start
 212              		.code	16
 213              		.thumb_func
 214              		.type	WatchdogTimer_Start, %function
 215              	WatchdogTimer_Start:
 216              	.LFB38:
 206:.\WatchdogTimer.c **** 
 207:.\WatchdogTimer.c **** 
 208:.\WatchdogTimer.c **** /*****************************************************************************
 209:.\WatchdogTimer.c **** * Function Name: WatchdogTimer_Start()
 210:.\WatchdogTimer.c **** ******************************************************************************
 211:.\WatchdogTimer.c **** * Summary:
 212:.\WatchdogTimer.c **** * Initializes the watchdog timer 0.
 213:.\WatchdogTimer.c **** *
 214:.\WatchdogTimer.c **** * Parameters:
 215:.\WatchdogTimer.c **** * wdtPeriodMs - The watchdog timer period to set, in milliseconds.
 216:.\WatchdogTimer.c **** *
 217:.\WatchdogTimer.c **** * Return:
 218:.\WatchdogTimer.c **** * None
 219:.\WatchdogTimer.c **** *
 220:.\WatchdogTimer.c **** * Theory:
 221:.\WatchdogTimer.c **** * Writes to the SRSS registers to start the low frequency clock and configure 
 222:.\WatchdogTimer.c **** * the watchdog timer 0. The watchdog timer is configured for 16-bit timing, 
 223:.\WatchdogTimer.c **** * and to generate an interrupt on match. 
 224:.\WatchdogTimer.c **** *
 225:.\WatchdogTimer.c **** * Side Effects:
 226:.\WatchdogTimer.c **** * None
 227:.\WatchdogTimer.c **** *
 228:.\WatchdogTimer.c **** * Note:
 229:.\WatchdogTimer.c **** *
 230:.\WatchdogTimer.c **** *****************************************************************************/
 231:.\WatchdogTimer.c **** void WatchdogTimer_Start(uint32 wdtPeriodMs)
 232:.\WatchdogTimer.c **** {
 217              		.loc 1 232 0
 218              		.cfi_startproc
 219 0000 80B5     		push	{r7, lr}
 220              		.cfi_def_cfa_offset 8
 221              		.cfi_offset 7, -8
 222              		.cfi_offset 14, -4
 223 0002 82B0     		sub	sp, sp, #8
 224              		.cfi_def_cfa_offset 16
ARM GAS  C:\Users\Yobely\AppData\Local\Temp\ccpau5rb.s 			page 9


 225 0004 00AF     		add	r7, sp, #0
 226              		.cfi_def_cfa_register 7
 227 0006 7860     		str	r0, [r7, #4]
 233:.\WatchdogTimer.c ****     CyIntSetVector(WDT_INTERRUPT_NUM, &WatchdogTimer_Isr);
 228              		.loc 1 233 0
 229 0008 194B     		ldr	r3, .L13
 230 000a 0820     		mov	r0, #8
 231 000c 191C     		mov	r1, r3
 232 000e FFF7FEFF 		bl	CyIntSetVector
 234:.\WatchdogTimer.c ****     
 235:.\WatchdogTimer.c ****     WatchdogTimer_Unlock();
 233              		.loc 1 235 0
 234 0012 FFF7FEFF 		bl	WatchdogTimer_Unlock
 236:.\WatchdogTimer.c **** 
 237:.\WatchdogTimer.c ****     /* Set the WDT period */
 238:.\WatchdogTimer.c ****     watchdogPeriodMs = wdtPeriodMs;
 235              		.loc 1 238 0
 236 0016 174B     		ldr	r3, .L13+4
 237 0018 7A68     		ldr	r2, [r7, #4]
 238 001a 1A60     		str	r2, [r3]
 239:.\WatchdogTimer.c ****     nextTicks = watchdogPeriodMs * WATCHDOG_TICKS_PER_MS;
 239              		.loc 1 239 0
 240 001c 154B     		ldr	r3, .L13+4
 241 001e 1B68     		ldr	r3, [r3]
 242 0020 5A01     		lsl	r2, r3, #5
 243 0022 154B     		ldr	r3, .L13+8
 244 0024 1A60     		str	r2, [r3]
 240:.\WatchdogTimer.c ****     UPDATE_WDT_MATCH(nextTicks);
 245              		.loc 1 240 0
 246 0026 154B     		ldr	r3, .L13+12
 247 0028 144A     		ldr	r2, .L13+12
 248 002a 1268     		ldr	r2, [r2]
 249 002c 120C     		lsr	r2, r2, #16
 250 002e 1104     		lsl	r1, r2, #16
 251 0030 114A     		ldr	r2, .L13+8
 252 0032 1268     		ldr	r2, [r2]
 253 0034 92B2     		uxth	r2, r2
 254 0036 8A18     		add	r2, r1, r2
 255 0038 1A60     		str	r2, [r3]
 241:.\WatchdogTimer.c ****         
 242:.\WatchdogTimer.c ****     /* Set WDT_CONFIG register */
 243:.\WatchdogTimer.c ****     CY_SET_REG32(CYREG_WDT_CONFIG, CY_GET_REG32(CYREG_WDT_CONFIG) | WDT_CONFIG_WDT_MODE0_INT);
 256              		.loc 1 243 0
 257 003a 114B     		ldr	r3, .L13+16
 258 003c 104A     		ldr	r2, .L13+16
 259 003e 1268     		ldr	r2, [r2]
 260 0040 0121     		mov	r1, #1
 261 0042 0A43     		orr	r2, r1
 262 0044 1A60     		str	r2, [r3]
 244:.\WatchdogTimer.c **** 
 245:.\WatchdogTimer.c ****     /* Enable WDT interrupt for the NVIC */
 246:.\WatchdogTimer.c ****     CyIntEnable(WDT_INTERRUPT_NUM);
 263              		.loc 1 246 0
 264 0046 0820     		mov	r0, #8
 265 0048 FFF7FEFF 		bl	CyIntEnable
 247:.\WatchdogTimer.c **** 
 248:.\WatchdogTimer.c ****     /* Set WDT_CONTROL register */
ARM GAS  C:\Users\Yobely\AppData\Local\Temp\ccpau5rb.s 			page 10


 249:.\WatchdogTimer.c ****     CY_SET_REG32(CYREG_WDT_CONTROL, CY_GET_REG32(CYREG_WDT_CONTROL) | WDT_CONTROL_WDT_ENABLE0);
 266              		.loc 1 249 0
 267 004c 0D4B     		ldr	r3, .L13+20
 268 004e 0D4A     		ldr	r2, .L13+20
 269 0050 1268     		ldr	r2, [r2]
 270 0052 0121     		mov	r1, #1
 271 0054 0A43     		orr	r2, r1
 272 0056 1A60     		str	r2, [r3]
 250:.\WatchdogTimer.c **** 
 251:.\WatchdogTimer.c ****     /* Wait for the WDT enable to complete */
 252:.\WatchdogTimer.c ****     while((CY_GET_REG32(CYREG_WDT_CONTROL) & WDT_CONTROL_WDT_ENABLED0) == 0);
 273              		.loc 1 252 0
 274 0058 C046     		mov	r8, r8
 275              	.L12:
 276              		.loc 1 252 0 is_stmt 0 discriminator 1
 277 005a 0A4B     		ldr	r3, .L13+20
 278 005c 1A68     		ldr	r2, [r3]
 279 005e 0223     		mov	r3, #2
 280 0060 1340     		and	r3, r2
 281 0062 FAD0     		beq	.L12
 253:.\WatchdogTimer.c ****     
 254:.\WatchdogTimer.c ****     WatchdogTimer_Lock();
 282              		.loc 1 254 0 is_stmt 1
 283 0064 FFF7FEFF 		bl	WatchdogTimer_Lock
 255:.\WatchdogTimer.c **** }
 284              		.loc 1 255 0
 285 0068 BD46     		mov	sp, r7
 286 006a 02B0     		add	sp, sp, #8
 287              		@ sp needed
 288 006c 80BD     		pop	{r7, pc}
 289              	.L14:
 290 006e C046     		.align	2
 291              	.L13:
 292 0070 00000000 		.word	WatchdogTimer_Isr
 293 0074 00000000 		.word	watchdogPeriodMs
 294 0078 04000000 		.word	nextTicks
 295 007c 08020B40 		.word	1074463240
 296 0080 0C020B40 		.word	1074463244
 297 0084 10020B40 		.word	1074463248
 298              		.cfi_endproc
 299              	.LFE38:
 300              		.size	WatchdogTimer_Start, .-WatchdogTimer_Start
 301              		.section	.text.WatchdogTimer_Stop,"ax",%progbits
 302              		.align	2
 303              		.global	WatchdogTimer_Stop
 304              		.code	16
 305              		.thumb_func
 306              		.type	WatchdogTimer_Stop, %function
 307              	WatchdogTimer_Stop:
 308              	.LFB39:
 256:.\WatchdogTimer.c **** 
 257:.\WatchdogTimer.c **** /*****************************************************************************
 258:.\WatchdogTimer.c **** * Function Name: WatchdogTimer_Stop()
 259:.\WatchdogTimer.c **** ******************************************************************************
 260:.\WatchdogTimer.c **** * Summary:
 261:.\WatchdogTimer.c **** * Disables the watchdog timer.
 262:.\WatchdogTimer.c **** *
ARM GAS  C:\Users\Yobely\AppData\Local\Temp\ccpau5rb.s 			page 11


 263:.\WatchdogTimer.c **** * Parameters:
 264:.\WatchdogTimer.c **** * None
 265:.\WatchdogTimer.c **** *
 266:.\WatchdogTimer.c **** * Return:
 267:.\WatchdogTimer.c **** * None
 268:.\WatchdogTimer.c **** *
 269:.\WatchdogTimer.c **** * Theory:
 270:.\WatchdogTimer.c **** * Disables the watchdog timer 0.
 271:.\WatchdogTimer.c **** *
 272:.\WatchdogTimer.c **** * Side Effects:
 273:.\WatchdogTimer.c **** * None
 274:.\WatchdogTimer.c **** *
 275:.\WatchdogTimer.c **** * Note:
 276:.\WatchdogTimer.c **** *
 277:.\WatchdogTimer.c **** *****************************************************************************/
 278:.\WatchdogTimer.c **** void WatchdogTimer_Stop (void)
 279:.\WatchdogTimer.c **** {
 309              		.loc 1 279 0
 310              		.cfi_startproc
 311 0000 80B5     		push	{r7, lr}
 312              		.cfi_def_cfa_offset 8
 313              		.cfi_offset 7, -8
 314              		.cfi_offset 14, -4
 315 0002 00AF     		add	r7, sp, #0
 316              		.cfi_def_cfa_register 7
 280:.\WatchdogTimer.c ****     WatchdogTimer_Unlock();
 317              		.loc 1 280 0
 318 0004 FFF7FEFF 		bl	WatchdogTimer_Unlock
 281:.\WatchdogTimer.c **** 
 282:.\WatchdogTimer.c ****     /* Clear WDT_CONFIG register */
 283:.\WatchdogTimer.c ****     CY_SET_REG32(CYREG_WDT_CONFIG, CY_GET_REG32(CYREG_WDT_CONFIG) & ~WDT_CONFIG_WDT_MODE0_INT);
 319              		.loc 1 283 0
 320 0008 074B     		ldr	r3, .L16
 321 000a 074A     		ldr	r2, .L16
 322 000c 1268     		ldr	r2, [r2]
 323 000e 0121     		mov	r1, #1
 324 0010 8A43     		bic	r2, r1
 325 0012 1A60     		str	r2, [r3]
 284:.\WatchdogTimer.c **** 
 285:.\WatchdogTimer.c ****     /* Clear WDT pending interrupt */
 286:.\WatchdogTimer.c ****     CY_SET_REG32(CYREG_WDT_CONTROL, CY_GET_REG32(CYREG_WDT_CONTROL) | WDT_CONTROL_WDT_INT0);
 326              		.loc 1 286 0
 327 0014 054B     		ldr	r3, .L16+4
 328 0016 054A     		ldr	r2, .L16+4
 329 0018 1268     		ldr	r2, [r2]
 330 001a 0421     		mov	r1, #4
 331 001c 0A43     		orr	r2, r1
 332 001e 1A60     		str	r2, [r3]
 287:.\WatchdogTimer.c **** 
 288:.\WatchdogTimer.c ****     WatchdogTimer_Lock();
 333              		.loc 1 288 0
 334 0020 FFF7FEFF 		bl	WatchdogTimer_Lock
 289:.\WatchdogTimer.c **** }
 335              		.loc 1 289 0
 336 0024 BD46     		mov	sp, r7
 337              		@ sp needed
 338 0026 80BD     		pop	{r7, pc}
ARM GAS  C:\Users\Yobely\AppData\Local\Temp\ccpau5rb.s 			page 12


 339              	.L17:
 340              		.align	2
 341              	.L16:
 342 0028 0C020B40 		.word	1074463244
 343 002c 10020B40 		.word	1074463248
 344              		.cfi_endproc
 345              	.LFE39:
 346              		.size	WatchdogTimer_Stop, .-WatchdogTimer_Stop
 347              		.data
 348              		.align	2
 349              		.type	intervalTimer.6483, %object
 350              		.size	intervalTimer.6483, 4
 351              	intervalTimer.6483:
 352 0008 01000000 		.word	1
 353              		.text
 354              	.Letext0:
 355              		.file 2 ".\\Generated_Source\\PSoC4/cytypes.h"
 356              		.file 3 ".\\Generated_Source\\PSoC4/BLE_Stack.h"
 357              		.file 4 ".\\Generated_Source\\PSoC4/BLE_dis.h"
 358              		.file 5 ".\\Generated_Source\\PSoC4/BLE_hts.h"
 359              		.file 6 ".\\CommonFunctions.h"
 360              		.file 7 ".\\BLE_HTSS.h"